
WASHING_MACHINE.elf:     file format elf32-avr

Sections:
Idx Name          Size      VMA       LMA       File off  Algn
  0 .data         00000164  00800100  00002474  00002508  2**0
                  CONTENTS, ALLOC, LOAD, DATA
  1 .text         00002474  00000000  00000000  00000094  2**1
                  CONTENTS, ALLOC, LOAD, READONLY, CODE
  2 .bss          00000058  00800264  00800264  0000266c  2**0
                  ALLOC
  3 .comment      0000005c  00000000  00000000  0000266c  2**0
                  CONTENTS, READONLY
  4 .note.gnu.avr.deviceinfo 00000040  00000000  00000000  000026c8  2**2
                  CONTENTS, READONLY
  5 .debug_aranges 00000210  00000000  00000000  00002708  2**0
                  CONTENTS, READONLY, DEBUGGING
  6 .debug_info   00002813  00000000  00000000  00002918  2**0
                  CONTENTS, READONLY, DEBUGGING
  7 .debug_abbrev 00000eb6  00000000  00000000  0000512b  2**0
                  CONTENTS, READONLY, DEBUGGING
  8 .debug_line   00001c75  00000000  00000000  00005fe1  2**0
                  CONTENTS, READONLY, DEBUGGING
  9 .debug_frame  0000040c  00000000  00000000  00007c58  2**2
                  CONTENTS, READONLY, DEBUGGING
 10 .debug_str    00000969  00000000  00000000  00008064  2**0
                  CONTENTS, READONLY, DEBUGGING
 11 .debug_loc    00000ade  00000000  00000000  000089cd  2**0
                  CONTENTS, READONLY, DEBUGGING
 12 .debug_ranges 00000180  00000000  00000000  000094ab  2**0
                  CONTENTS, READONLY, DEBUGGING

Disassembly of section .text:

00000000 <__vectors>:
       0:	45 c0       	rjmp	.+138    	; 0x8c <__ctors_end>
       2:	00 00       	nop
       4:	62 c0       	rjmp	.+196    	; 0xca <__bad_interrupt>
       6:	00 00       	nop
       8:	60 c0       	rjmp	.+192    	; 0xca <__bad_interrupt>
       a:	00 00       	nop
       c:	5e c0       	rjmp	.+188    	; 0xca <__bad_interrupt>
       e:	00 00       	nop
      10:	5c c0       	rjmp	.+184    	; 0xca <__bad_interrupt>
      12:	00 00       	nop
      14:	5a c0       	rjmp	.+180    	; 0xca <__bad_interrupt>
      16:	00 00       	nop
      18:	58 c0       	rjmp	.+176    	; 0xca <__bad_interrupt>
      1a:	00 00       	nop
      1c:	56 c0       	rjmp	.+172    	; 0xca <__bad_interrupt>
      1e:	00 00       	nop
      20:	54 c0       	rjmp	.+168    	; 0xca <__bad_interrupt>
      22:	00 00       	nop
      24:	52 c0       	rjmp	.+164    	; 0xca <__bad_interrupt>
      26:	00 00       	nop
      28:	50 c0       	rjmp	.+160    	; 0xca <__bad_interrupt>
      2a:	00 00       	nop
      2c:	4e c0       	rjmp	.+156    	; 0xca <__bad_interrupt>
      2e:	00 00       	nop
      30:	4c c0       	rjmp	.+152    	; 0xca <__bad_interrupt>
      32:	00 00       	nop
      34:	4a c0       	rjmp	.+148    	; 0xca <__bad_interrupt>
      36:	00 00       	nop
      38:	48 c0       	rjmp	.+144    	; 0xca <__bad_interrupt>
      3a:	00 00       	nop
      3c:	46 c0       	rjmp	.+140    	; 0xca <__bad_interrupt>
      3e:	00 00       	nop
      40:	0c 94 1d 0c 	jmp	0x183a	; 0x183a <__vector_16>
      44:	42 c0       	rjmp	.+132    	; 0xca <__bad_interrupt>
      46:	00 00       	nop
      48:	40 c0       	rjmp	.+128    	; 0xca <__bad_interrupt>
      4a:	00 00       	nop
      4c:	3e c0       	rjmp	.+124    	; 0xca <__bad_interrupt>
      4e:	00 00       	nop
      50:	3c c0       	rjmp	.+120    	; 0xca <__bad_interrupt>
      52:	00 00       	nop
      54:	3a c0       	rjmp	.+116    	; 0xca <__bad_interrupt>
      56:	00 00       	nop
      58:	38 c0       	rjmp	.+112    	; 0xca <__bad_interrupt>
      5a:	00 00       	nop
      5c:	36 c0       	rjmp	.+108    	; 0xca <__bad_interrupt>
      5e:	00 00       	nop
      60:	34 c0       	rjmp	.+104    	; 0xca <__bad_interrupt>
      62:	00 00       	nop
      64:	32 c0       	rjmp	.+100    	; 0xca <__bad_interrupt>
      66:	00 00       	nop
      68:	30 c0       	rjmp	.+96     	; 0xca <__bad_interrupt>
      6a:	00 00       	nop
      6c:	2e c0       	rjmp	.+92     	; 0xca <__bad_interrupt>
      6e:	00 00       	nop
      70:	2c c0       	rjmp	.+88     	; 0xca <__bad_interrupt>
      72:	00 00       	nop
      74:	2a c0       	rjmp	.+84     	; 0xca <__bad_interrupt>
      76:	00 00       	nop
      78:	28 c0       	rjmp	.+80     	; 0xca <__bad_interrupt>
      7a:	00 00       	nop
      7c:	26 c0       	rjmp	.+76     	; 0xca <__bad_interrupt>
      7e:	00 00       	nop
      80:	24 c0       	rjmp	.+72     	; 0xca <__bad_interrupt>
      82:	00 00       	nop
      84:	22 c0       	rjmp	.+68     	; 0xca <__bad_interrupt>
      86:	00 00       	nop
      88:	20 c0       	rjmp	.+64     	; 0xca <__bad_interrupt>
	...

0000008c <__ctors_end>:
      8c:	11 24       	eor	r1, r1
      8e:	1f be       	out	0x3f, r1	; 63
      90:	cf ef       	ldi	r28, 0xFF	; 255
      92:	d0 e1       	ldi	r29, 0x10	; 16
      94:	de bf       	out	0x3e, r29	; 62
      96:	cd bf       	out	0x3d, r28	; 61

00000098 <__do_copy_data>:
      98:	12 e0       	ldi	r17, 0x02	; 2
      9a:	a0 e0       	ldi	r26, 0x00	; 0
      9c:	b1 e0       	ldi	r27, 0x01	; 1
      9e:	e4 e7       	ldi	r30, 0x74	; 116
      a0:	f4 e2       	ldi	r31, 0x24	; 36
      a2:	00 e0       	ldi	r16, 0x00	; 0
      a4:	0b bf       	out	0x3b, r16	; 59
      a6:	02 c0       	rjmp	.+4      	; 0xac <__do_copy_data+0x14>
      a8:	07 90       	elpm	r0, Z+
      aa:	0d 92       	st	X+, r0
      ac:	a4 36       	cpi	r26, 0x64	; 100
      ae:	b1 07       	cpc	r27, r17
      b0:	d9 f7       	brne	.-10     	; 0xa8 <__do_copy_data+0x10>

000000b2 <__do_clear_bss>:
      b2:	22 e0       	ldi	r18, 0x02	; 2
      b4:	a4 e6       	ldi	r26, 0x64	; 100
      b6:	b2 e0       	ldi	r27, 0x02	; 2
      b8:	01 c0       	rjmp	.+2      	; 0xbc <.do_clear_bss_start>

000000ba <.do_clear_bss_loop>:
      ba:	1d 92       	st	X+, r1

000000bc <.do_clear_bss_start>:
      bc:	ac 3b       	cpi	r26, 0xBC	; 188
      be:	b2 07       	cpc	r27, r18
      c0:	e1 f7       	brne	.-8      	; 0xba <.do_clear_bss_loop>
      c2:	0e 94 1f 0f 	call	0x1e3e	; 0x1e3e <main>
      c6:	0c 94 38 12 	jmp	0x2470	; 0x2470 <_exit>

000000ca <__bad_interrupt>:
      ca:	9a cf       	rjmp	.-204    	; 0x0 <__vectors>

000000cc <init_button>:
      cc:	8f ef       	ldi	r24, 0xFF	; 255
      ce:	8a bb       	out	0x1a, r24	; 26
      d0:	81 b3       	in	r24, 0x11	; 17
      d2:	83 70       	andi	r24, 0x03	; 3
      d4:	81 bb       	out	0x11, r24	; 17
      d6:	08 95       	ret

000000d8 <get_button1>:
      d8:	80 b3       	in	r24, 0x10	; 16
      da:	84 70       	andi	r24, 0x04	; 4
      dc:	90 91 69 02 	lds	r25, 0x0269	; 0x800269 <previous_state.1732>
      e0:	91 11       	cpse	r25, r1
      e2:	11 c0       	rjmp	.+34     	; 0x106 <get_button1+0x2e>
      e4:	88 23       	and	r24, r24
      e6:	79 f0       	breq	.+30     	; 0x106 <get_button1+0x2e>
	#else
		//round up by default
		__ticks_dc = (uint32_t)(ceil(fabs(__tmp)));
	#endif

	__builtin_avr_delay_cycles(__ticks_dc);
      e8:	2f ef       	ldi	r18, 0xFF	; 255
      ea:	8d ee       	ldi	r24, 0xED	; 237
      ec:	92 e0       	ldi	r25, 0x02	; 2
      ee:	21 50       	subi	r18, 0x01	; 1
      f0:	80 40       	sbci	r24, 0x00	; 0
      f2:	90 40       	sbci	r25, 0x00	; 0
      f4:	e1 f7       	brne	.-8      	; 0xee <get_button1+0x16>
      f6:	00 c0       	rjmp	.+0      	; 0xf8 <get_button1+0x20>
      f8:	00 00       	nop
      fa:	81 e0       	ldi	r24, 0x01	; 1
      fc:	80 93 69 02 	sts	0x0269, r24	; 0x800269 <previous_state.1732>
     100:	80 e0       	ldi	r24, 0x00	; 0
     102:	90 e0       	ldi	r25, 0x00	; 0
     104:	08 95       	ret
     106:	91 30       	cpi	r25, 0x01	; 1
     108:	81 f4       	brne	.+32     	; 0x12a <get_button1+0x52>
     10a:	81 11       	cpse	r24, r1
     10c:	11 c0       	rjmp	.+34     	; 0x130 <get_button1+0x58>
     10e:	10 92 69 02 	sts	0x0269, r1	; 0x800269 <previous_state.1732>
     112:	2f ef       	ldi	r18, 0xFF	; 255
     114:	86 e7       	ldi	r24, 0x76	; 118
     116:	91 e0       	ldi	r25, 0x01	; 1
     118:	21 50       	subi	r18, 0x01	; 1
     11a:	80 40       	sbci	r24, 0x00	; 0
     11c:	90 40       	sbci	r25, 0x00	; 0
     11e:	e1 f7       	brne	.-8      	; 0x118 <get_button1+0x40>
     120:	00 c0       	rjmp	.+0      	; 0x122 <get_button1+0x4a>
     122:	00 00       	nop
     124:	81 e0       	ldi	r24, 0x01	; 1
     126:	90 e0       	ldi	r25, 0x00	; 0
     128:	08 95       	ret
     12a:	80 e0       	ldi	r24, 0x00	; 0
     12c:	90 e0       	ldi	r25, 0x00	; 0
     12e:	08 95       	ret
     130:	80 e0       	ldi	r24, 0x00	; 0
     132:	90 e0       	ldi	r25, 0x00	; 0
     134:	08 95       	ret

00000136 <get_button2>:
     136:	80 b3       	in	r24, 0x10	; 16
     138:	88 70       	andi	r24, 0x08	; 8
     13a:	90 91 68 02 	lds	r25, 0x0268	; 0x800268 <previous_state.1736>
     13e:	91 11       	cpse	r25, r1
     140:	11 c0       	rjmp	.+34     	; 0x164 <get_button2+0x2e>
     142:	88 23       	and	r24, r24
     144:	79 f0       	breq	.+30     	; 0x164 <get_button2+0x2e>
     146:	2f ef       	ldi	r18, 0xFF	; 255
     148:	8d ee       	ldi	r24, 0xED	; 237
     14a:	92 e0       	ldi	r25, 0x02	; 2
     14c:	21 50       	subi	r18, 0x01	; 1
     14e:	80 40       	sbci	r24, 0x00	; 0
     150:	90 40       	sbci	r25, 0x00	; 0
     152:	e1 f7       	brne	.-8      	; 0x14c <get_button2+0x16>
     154:	00 c0       	rjmp	.+0      	; 0x156 <get_button2+0x20>
     156:	00 00       	nop
     158:	81 e0       	ldi	r24, 0x01	; 1
     15a:	80 93 68 02 	sts	0x0268, r24	; 0x800268 <previous_state.1736>
     15e:	80 e0       	ldi	r24, 0x00	; 0
     160:	90 e0       	ldi	r25, 0x00	; 0
     162:	08 95       	ret
     164:	91 30       	cpi	r25, 0x01	; 1
     166:	81 f4       	brne	.+32     	; 0x188 <get_button2+0x52>
     168:	81 11       	cpse	r24, r1
     16a:	11 c0       	rjmp	.+34     	; 0x18e <get_button2+0x58>
     16c:	10 92 68 02 	sts	0x0268, r1	; 0x800268 <previous_state.1736>
     170:	2f ef       	ldi	r18, 0xFF	; 255
     172:	86 e7       	ldi	r24, 0x76	; 118
     174:	91 e0       	ldi	r25, 0x01	; 1
     176:	21 50       	subi	r18, 0x01	; 1
     178:	80 40       	sbci	r24, 0x00	; 0
     17a:	90 40       	sbci	r25, 0x00	; 0
     17c:	e1 f7       	brne	.-8      	; 0x176 <get_button2+0x40>
     17e:	00 c0       	rjmp	.+0      	; 0x180 <get_button2+0x4a>
     180:	00 00       	nop
     182:	81 e0       	ldi	r24, 0x01	; 1
     184:	90 e0       	ldi	r25, 0x00	; 0
     186:	08 95       	ret
     188:	80 e0       	ldi	r24, 0x00	; 0
     18a:	90 e0       	ldi	r25, 0x00	; 0
     18c:	08 95       	ret
     18e:	80 e0       	ldi	r24, 0x00	; 0
     190:	90 e0       	ldi	r25, 0x00	; 0
     192:	08 95       	ret

00000194 <get_button3>:
     194:	80 b3       	in	r24, 0x10	; 16
     196:	80 71       	andi	r24, 0x10	; 16
     198:	90 91 67 02 	lds	r25, 0x0267	; 0x800267 <previous_state.1740>
     19c:	91 11       	cpse	r25, r1
     19e:	11 c0       	rjmp	.+34     	; 0x1c2 <get_button3+0x2e>
     1a0:	88 23       	and	r24, r24
     1a2:	79 f0       	breq	.+30     	; 0x1c2 <get_button3+0x2e>
     1a4:	2f ef       	ldi	r18, 0xFF	; 255
     1a6:	8d ee       	ldi	r24, 0xED	; 237
     1a8:	92 e0       	ldi	r25, 0x02	; 2
     1aa:	21 50       	subi	r18, 0x01	; 1
     1ac:	80 40       	sbci	r24, 0x00	; 0
     1ae:	90 40       	sbci	r25, 0x00	; 0
     1b0:	e1 f7       	brne	.-8      	; 0x1aa <get_button3+0x16>
     1b2:	00 c0       	rjmp	.+0      	; 0x1b4 <get_button3+0x20>
     1b4:	00 00       	nop
     1b6:	81 e0       	ldi	r24, 0x01	; 1
     1b8:	80 93 67 02 	sts	0x0267, r24	; 0x800267 <previous_state.1740>
     1bc:	80 e0       	ldi	r24, 0x00	; 0
     1be:	90 e0       	ldi	r25, 0x00	; 0
     1c0:	08 95       	ret
     1c2:	91 30       	cpi	r25, 0x01	; 1
     1c4:	81 f4       	brne	.+32     	; 0x1e6 <get_button3+0x52>
     1c6:	81 11       	cpse	r24, r1
     1c8:	11 c0       	rjmp	.+34     	; 0x1ec <get_button3+0x58>
     1ca:	10 92 67 02 	sts	0x0267, r1	; 0x800267 <previous_state.1740>
     1ce:	2f ef       	ldi	r18, 0xFF	; 255
     1d0:	86 e7       	ldi	r24, 0x76	; 118
     1d2:	91 e0       	ldi	r25, 0x01	; 1
     1d4:	21 50       	subi	r18, 0x01	; 1
     1d6:	80 40       	sbci	r24, 0x00	; 0
     1d8:	90 40       	sbci	r25, 0x00	; 0
     1da:	e1 f7       	brne	.-8      	; 0x1d4 <get_button3+0x40>
     1dc:	00 c0       	rjmp	.+0      	; 0x1de <get_button3+0x4a>
     1de:	00 00       	nop
     1e0:	81 e0       	ldi	r24, 0x01	; 1
     1e2:	90 e0       	ldi	r25, 0x00	; 0
     1e4:	08 95       	ret
     1e6:	80 e0       	ldi	r24, 0x00	; 0
     1e8:	90 e0       	ldi	r25, 0x00	; 0
     1ea:	08 95       	ret
     1ec:	80 e0       	ldi	r24, 0x00	; 0
     1ee:	90 e0       	ldi	r25, 0x00	; 0
     1f0:	08 95       	ret

000001f2 <get_button4>:
     1f2:	80 b3       	in	r24, 0x10	; 16
     1f4:	80 72       	andi	r24, 0x20	; 32
     1f6:	90 91 66 02 	lds	r25, 0x0266	; 0x800266 <previous_state.1744>
     1fa:	91 11       	cpse	r25, r1
     1fc:	11 c0       	rjmp	.+34     	; 0x220 <get_button4+0x2e>
     1fe:	88 23       	and	r24, r24
     200:	79 f0       	breq	.+30     	; 0x220 <get_button4+0x2e>
     202:	2f ef       	ldi	r18, 0xFF	; 255
     204:	8d ee       	ldi	r24, 0xED	; 237
     206:	92 e0       	ldi	r25, 0x02	; 2
     208:	21 50       	subi	r18, 0x01	; 1
     20a:	80 40       	sbci	r24, 0x00	; 0
     20c:	90 40       	sbci	r25, 0x00	; 0
     20e:	e1 f7       	brne	.-8      	; 0x208 <get_button4+0x16>
     210:	00 c0       	rjmp	.+0      	; 0x212 <get_button4+0x20>
     212:	00 00       	nop
     214:	81 e0       	ldi	r24, 0x01	; 1
     216:	80 93 66 02 	sts	0x0266, r24	; 0x800266 <previous_state.1744>
     21a:	80 e0       	ldi	r24, 0x00	; 0
     21c:	90 e0       	ldi	r25, 0x00	; 0
     21e:	08 95       	ret
     220:	91 30       	cpi	r25, 0x01	; 1
     222:	81 f4       	brne	.+32     	; 0x244 <get_button4+0x52>
     224:	81 11       	cpse	r24, r1
     226:	11 c0       	rjmp	.+34     	; 0x24a <get_button4+0x58>
     228:	10 92 66 02 	sts	0x0266, r1	; 0x800266 <previous_state.1744>
     22c:	2f ef       	ldi	r18, 0xFF	; 255
     22e:	86 e7       	ldi	r24, 0x76	; 118
     230:	91 e0       	ldi	r25, 0x01	; 1
     232:	21 50       	subi	r18, 0x01	; 1
     234:	80 40       	sbci	r24, 0x00	; 0
     236:	90 40       	sbci	r25, 0x00	; 0
     238:	e1 f7       	brne	.-8      	; 0x232 <get_button4+0x40>
     23a:	00 c0       	rjmp	.+0      	; 0x23c <get_button4+0x4a>
     23c:	00 00       	nop
     23e:	81 e0       	ldi	r24, 0x01	; 1
     240:	90 e0       	ldi	r25, 0x00	; 0
     242:	08 95       	ret
     244:	80 e0       	ldi	r24, 0x00	; 0
     246:	90 e0       	ldi	r25, 0x00	; 0
     248:	08 95       	ret
     24a:	80 e0       	ldi	r24, 0x00	; 0
     24c:	90 e0       	ldi	r25, 0x00	; 0
     24e:	08 95       	ret

00000250 <get_button5>:
     250:	80 b3       	in	r24, 0x10	; 16
     252:	80 74       	andi	r24, 0x40	; 64
     254:	90 91 65 02 	lds	r25, 0x0265	; 0x800265 <previous_state.1748>
     258:	91 11       	cpse	r25, r1
     25a:	11 c0       	rjmp	.+34     	; 0x27e <get_button5+0x2e>
     25c:	88 23       	and	r24, r24
     25e:	79 f0       	breq	.+30     	; 0x27e <get_button5+0x2e>
     260:	2f ef       	ldi	r18, 0xFF	; 255
     262:	8d ee       	ldi	r24, 0xED	; 237
     264:	92 e0       	ldi	r25, 0x02	; 2
     266:	21 50       	subi	r18, 0x01	; 1
     268:	80 40       	sbci	r24, 0x00	; 0
     26a:	90 40       	sbci	r25, 0x00	; 0
     26c:	e1 f7       	brne	.-8      	; 0x266 <get_button5+0x16>
     26e:	00 c0       	rjmp	.+0      	; 0x270 <get_button5+0x20>
     270:	00 00       	nop
     272:	81 e0       	ldi	r24, 0x01	; 1
     274:	80 93 65 02 	sts	0x0265, r24	; 0x800265 <previous_state.1748>
     278:	80 e0       	ldi	r24, 0x00	; 0
     27a:	90 e0       	ldi	r25, 0x00	; 0
     27c:	08 95       	ret
     27e:	91 30       	cpi	r25, 0x01	; 1
     280:	81 f4       	brne	.+32     	; 0x2a2 <get_button5+0x52>
     282:	81 11       	cpse	r24, r1
     284:	11 c0       	rjmp	.+34     	; 0x2a8 <get_button5+0x58>
     286:	10 92 65 02 	sts	0x0265, r1	; 0x800265 <previous_state.1748>
     28a:	2f ef       	ldi	r18, 0xFF	; 255
     28c:	86 e7       	ldi	r24, 0x76	; 118
     28e:	91 e0       	ldi	r25, 0x01	; 1
     290:	21 50       	subi	r18, 0x01	; 1
     292:	80 40       	sbci	r24, 0x00	; 0
     294:	90 40       	sbci	r25, 0x00	; 0
     296:	e1 f7       	brne	.-8      	; 0x290 <get_button5+0x40>
     298:	00 c0       	rjmp	.+0      	; 0x29a <get_button5+0x4a>
     29a:	00 00       	nop
     29c:	81 e0       	ldi	r24, 0x01	; 1
     29e:	90 e0       	ldi	r25, 0x00	; 0
     2a0:	08 95       	ret
     2a2:	80 e0       	ldi	r24, 0x00	; 0
     2a4:	90 e0       	ldi	r25, 0x00	; 0
     2a6:	08 95       	ret
     2a8:	80 e0       	ldi	r24, 0x00	; 0
     2aa:	90 e0       	ldi	r25, 0x00	; 0
     2ac:	08 95       	ret

000002ae <get_button6>:
     2ae:	80 b3       	in	r24, 0x10	; 16
     2b0:	80 78       	andi	r24, 0x80	; 128
     2b2:	90 91 64 02 	lds	r25, 0x0264	; 0x800264 <__data_end>
     2b6:	91 11       	cpse	r25, r1
     2b8:	11 c0       	rjmp	.+34     	; 0x2dc <get_button6+0x2e>
     2ba:	88 23       	and	r24, r24
     2bc:	79 f0       	breq	.+30     	; 0x2dc <get_button6+0x2e>
     2be:	2f ef       	ldi	r18, 0xFF	; 255
     2c0:	8d ee       	ldi	r24, 0xED	; 237
     2c2:	92 e0       	ldi	r25, 0x02	; 2
     2c4:	21 50       	subi	r18, 0x01	; 1
     2c6:	80 40       	sbci	r24, 0x00	; 0
     2c8:	90 40       	sbci	r25, 0x00	; 0
     2ca:	e1 f7       	brne	.-8      	; 0x2c4 <get_button6+0x16>
     2cc:	00 c0       	rjmp	.+0      	; 0x2ce <get_button6+0x20>
     2ce:	00 00       	nop
     2d0:	81 e0       	ldi	r24, 0x01	; 1
     2d2:	80 93 64 02 	sts	0x0264, r24	; 0x800264 <__data_end>
     2d6:	80 e0       	ldi	r24, 0x00	; 0
     2d8:	90 e0       	ldi	r25, 0x00	; 0
     2da:	08 95       	ret
     2dc:	91 30       	cpi	r25, 0x01	; 1
     2de:	81 f4       	brne	.+32     	; 0x300 <get_button6+0x52>
     2e0:	81 11       	cpse	r24, r1
     2e2:	11 c0       	rjmp	.+34     	; 0x306 <get_button6+0x58>
     2e4:	10 92 64 02 	sts	0x0264, r1	; 0x800264 <__data_end>
     2e8:	2f ef       	ldi	r18, 0xFF	; 255
     2ea:	86 e7       	ldi	r24, 0x76	; 118
     2ec:	91 e0       	ldi	r25, 0x01	; 1
     2ee:	21 50       	subi	r18, 0x01	; 1
     2f0:	80 40       	sbci	r24, 0x00	; 0
     2f2:	90 40       	sbci	r25, 0x00	; 0
     2f4:	e1 f7       	brne	.-8      	; 0x2ee <get_button6+0x40>
     2f6:	00 c0       	rjmp	.+0      	; 0x2f8 <get_button6+0x4a>
     2f8:	00 00       	nop
     2fa:	81 e0       	ldi	r24, 0x01	; 1
     2fc:	90 e0       	ldi	r25, 0x00	; 0
     2fe:	08 95       	ret
     300:	80 e0       	ldi	r24, 0x00	; 0
     302:	90 e0       	ldi	r25, 0x00	; 0
     304:	08 95       	ret
     306:	80 e0       	ldi	r24, 0x00	; 0
     308:	90 e0       	ldi	r25, 0x00	; 0
     30a:	08 95       	ret

0000030c <init_buzzer>:
extern void init_button();		// BTN 초기화

// Timer3 위상교정 PWM
void init_buzzer()
{
	DDRB |= 0x20;   // PWM CHANNEL  OC1A(PB5) 출력 모드로 설정 한다.
     30c:	87 b3       	in	r24, 0x17	; 23
     30e:	80 62       	ori	r24, 0x20	; 32
     310:	87 bb       	out	0x17, r24	; 23
	TCCR1A = (1<<COM1A0); // COM3A0 : 비교일치시 PE3 출력 반전 (P328 표14-6 참고)
     312:	80 e4       	ldi	r24, 0x40	; 64
     314:	8f bd       	out	0x2f, r24	; 47
	TCCR1B = (1<<WGM12) | (1<<CS11);   // WGM32 : CTC 4(P327 표14-5) CS31: 8분주(P318)
     316:	8a e0       	ldi	r24, 0x0A	; 10
     318:	8e bd       	out	0x2e, r24	; 46
	// up-dounting: 비교일치시 LOW, down-counting시 HIGH출력
	// 1/2000000 ==> 0.0000005sec (0.5us)
	// P599 TOP 값 계산 참고
	// fPWM(PWM주파수) = fOSC(16M) / ( 2(up.down)x N(분주율)xTOP )
	// TOP =  fOSC(16M) / (  2(up.down)x N(분주율)x 원하는주파수)
	TCCR1C = 0;  // P328 그림 14-11 참고
     31a:	10 92 7a 00 	sts	0x007A, r1	; 0x80007a <__TEXT_REGION_LENGTH__+0x7e007a>
	OCR1A = 0;   // 비교 일치값을 OCR3A에 넣는다.
     31e:	1b bc       	out	0x2b, r1	; 43
     320:	1a bc       	out	0x2a, r1	; 42
     322:	08 95       	ret

00000324 <button_buzzer_off>:
	return;
}

void button_buzzer_off()
{
	if(get_button_press_detector && get_button_timer >= 200)
     324:	80 91 70 02 	lds	r24, 0x0270	; 0x800270 <get_button_press_detector>
     328:	90 91 71 02 	lds	r25, 0x0271	; 0x800271 <get_button_press_detector+0x1>
     32c:	89 2b       	or	r24, r25
     32e:	69 f0       	breq	.+26     	; 0x34a <button_buzzer_off+0x26>
     330:	80 91 80 02 	lds	r24, 0x0280	; 0x800280 <get_button_timer>
     334:	90 91 81 02 	lds	r25, 0x0281	; 0x800281 <get_button_timer+0x1>
     338:	88 3c       	cpi	r24, 0xC8	; 200
     33a:	91 05       	cpc	r25, r1
     33c:	34 f0       	brlt	.+12     	; 0x34a <button_buzzer_off+0x26>
	{
		get_button_press_detector = 0;
     33e:	10 92 71 02 	sts	0x0271, r1	; 0x800271 <get_button_press_detector+0x1>
     342:	10 92 70 02 	sts	0x0270, r1	; 0x800270 <get_button_press_detector>
		OCR1A = 0;
     346:	1b bc       	out	0x2b, r1	; 43
     348:	1a bc       	out	0x2a, r1	; 42
     34a:	08 95       	ret

0000034c <button_buzzer_on>:
	}
}

void button_buzzer_on()
{
	get_button_press_detector = 1;
     34c:	81 e0       	ldi	r24, 0x01	; 1
     34e:	90 e0       	ldi	r25, 0x00	; 0
     350:	90 93 71 02 	sts	0x0271, r25	; 0x800271 <get_button_press_detector+0x1>
     354:	80 93 70 02 	sts	0x0270, r24	; 0x800270 <get_button_press_detector>
	get_button_timer = 0;
     358:	10 92 81 02 	sts	0x0281, r1	; 0x800281 <get_button_timer+0x1>
     35c:	10 92 80 02 	sts	0x0280, r1	; 0x800280 <get_button_timer>
	OCR1A = 650;
     360:	8a e8       	ldi	r24, 0x8A	; 138
     362:	92 e0       	ldi	r25, 0x02	; 2
     364:	9b bd       	out	0x2b, r25	; 43
     366:	8a bd       	out	0x2a, r24	; 42
     368:	08 95       	ret

0000036a <complete_buzzer>:
void complete_buzzer()		
{
	static char state1 = 0;
	static char state2 = 0;

	if(wash_complete)
     36a:	80 91 72 02 	lds	r24, 0x0272	; 0x800272 <wash_complete>
     36e:	90 91 73 02 	lds	r25, 0x0273	; 0x800273 <wash_complete+0x1>
     372:	89 2b       	or	r24, r25
     374:	99 f1       	breq	.+102    	; 0x3dc <complete_buzzer+0x72>
	{
		if(buzzer_delay >= 500)
     376:	80 91 84 02 	lds	r24, 0x0284	; 0x800284 <buzzer_delay>
     37a:	90 91 85 02 	lds	r25, 0x0285	; 0x800285 <buzzer_delay+0x1>
     37e:	84 3f       	cpi	r24, 0xF4	; 244
     380:	91 40       	sbci	r25, 0x01	; 1
     382:	84 f1       	brlt	.+96     	; 0x3e4 <complete_buzzer+0x7a>
		{
			buzzer_delay = 0;
     384:	10 92 85 02 	sts	0x0285, r1	; 0x800285 <buzzer_delay+0x1>
     388:	10 92 84 02 	sts	0x0284, r1	; 0x800284 <buzzer_delay>
			state1 = !state1;
     38c:	81 e0       	ldi	r24, 0x01	; 1
     38e:	90 91 6b 02 	lds	r25, 0x026B	; 0x80026b <state1.1743>
     392:	91 11       	cpse	r25, r1
     394:	80 e0       	ldi	r24, 0x00	; 0
     396:	80 93 6b 02 	sts	0x026B, r24	; 0x80026b <state1.1743>
			if(state1)
     39a:	88 23       	and	r24, r24
     39c:	e1 f0       	breq	.+56     	; 0x3d6 <complete_buzzer+0x6c>
			{
				if(buzzer_timer >= 125)
     39e:	80 91 82 02 	lds	r24, 0x0282	; 0x800282 <buzzer_timer>
     3a2:	90 91 83 02 	lds	r25, 0x0283	; 0x800283 <buzzer_timer+0x1>
     3a6:	8d 37       	cpi	r24, 0x7D	; 125
     3a8:	91 05       	cpc	r25, r1
     3aa:	e4 f0       	brlt	.+56     	; 0x3e4 <complete_buzzer+0x7a>
				{
					buzzer_timer = 0;
     3ac:	10 92 83 02 	sts	0x0283, r1	; 0x800283 <buzzer_timer+0x1>
     3b0:	10 92 82 02 	sts	0x0282, r1	; 0x800282 <buzzer_timer>
					state2 = !state2;
     3b4:	81 e0       	ldi	r24, 0x01	; 1
     3b6:	90 91 6a 02 	lds	r25, 0x026A	; 0x80026a <state2.1744>
     3ba:	91 11       	cpse	r25, r1
     3bc:	80 e0       	ldi	r24, 0x00	; 0
     3be:	80 93 6a 02 	sts	0x026A, r24	; 0x80026a <state2.1744>
					if(state2)
     3c2:	88 23       	and	r24, r24
     3c4:	29 f0       	breq	.+10     	; 0x3d0 <complete_buzzer+0x66>
					{
						OCR1A = 378;
     3c6:	8a e7       	ldi	r24, 0x7A	; 122
     3c8:	91 e0       	ldi	r25, 0x01	; 1
     3ca:	9b bd       	out	0x2b, r25	; 43
     3cc:	8a bd       	out	0x2a, r24	; 42
     3ce:	08 95       	ret
					}
					else
					OCR1A = 0;
     3d0:	1b bc       	out	0x2b, r1	; 43
     3d2:	1a bc       	out	0x2a, r1	; 42
     3d4:	08 95       	ret
				}
			}
			else
				OCR1A = 0;
     3d6:	1b bc       	out	0x2b, r1	; 43
     3d8:	1a bc       	out	0x2a, r1	; 42
     3da:	08 95       	ret
		}
		
	}
	else
	{
		state1 = 0;
     3dc:	10 92 6b 02 	sts	0x026B, r1	; 0x80026b <state1.1743>
		state2 = 0;
     3e0:	10 92 6a 02 	sts	0x026A, r1	; 0x80026a <state2.1744>
     3e4:	08 95       	ret

000003e6 <init_fan>:

extern volatile int fan_timer;

void init_fan()
{
	DDRE |= ( 1 << 0) | ( 1 << 2) | ( 1 << 5);  // PE.0 PE.2 PE5 출력 모드로 설정
     3e6:	82 b1       	in	r24, 0x02	; 2
     3e8:	85 62       	ori	r24, 0x25	; 37
     3ea:	82 b9       	out	0x02, r24	; 2
	
	// 모드5 : 8비트고속PWM모드 timer 3
	TCCR3A |= (1 << WGM30);
     3ec:	ab e8       	ldi	r26, 0x8B	; 139
     3ee:	b0 e0       	ldi	r27, 0x00	; 0
     3f0:	8c 91       	ld	r24, X
     3f2:	81 60       	ori	r24, 0x01	; 1
     3f4:	8c 93       	st	X, r24
	TCCR3B |= (1 << WGM32);
     3f6:	ea e8       	ldi	r30, 0x8A	; 138
     3f8:	f0 e0       	ldi	r31, 0x00	; 0
     3fa:	80 81       	ld	r24, Z
     3fc:	88 60       	ori	r24, 0x08	; 8
     3fe:	80 83       	st	Z, r24
	
	// 비반전 모드 TOP: 0xff 비교일치값 : OCR3C : PE5
	TCCR3A |= (1 << COM3C1);
     400:	8c 91       	ld	r24, X
     402:	88 60       	ori	r24, 0x08	; 8
     404:	8c 93       	st	X, r24
	
	// 분주비 64  16000000/64  ==> 250000HZ(250KHZ)
	// 256 / 250000 ==> 1.02ms
	// 127 / 250000 ==> 0.5ms
	TCCR3B |= ( 1 << CS31)  | (1 << CS30);   // 분주비 64
     406:	80 81       	ld	r24, Z
     408:	83 60       	ori	r24, 0x03	; 3
     40a:	80 83       	st	Z, r24
	// 1600000HZ / 64분주 ==> 250000HZ (250KHZ)
	//
	
	OCR3C=0;  // PORTE.5
     40c:	10 92 83 00 	sts	0x0083, r1	; 0x800083 <__TEXT_REGION_LENGTH__+0x7e0083>
     410:	10 92 82 00 	sts	0x0082, r1	; 0x800082 <__TEXT_REGION_LENGTH__+0x7e0082>
     414:	08 95       	ret

00000416 <fan_active>:
void fan_active()
{
	static char wash_state = 0;
	static char rinse_state = 0;
	
	if(set_reset == ACTIVE && run_stop == RUN)		// 세탁기 동작 중 
     416:	80 91 7e 02 	lds	r24, 0x027E	; 0x80027e <set_reset>
     41a:	90 91 7f 02 	lds	r25, 0x027F	; 0x80027f <set_reset+0x1>
     41e:	82 30       	cpi	r24, 0x02	; 2
     420:	91 05       	cpc	r25, r1
     422:	09 f0       	breq	.+2      	; 0x426 <fan_active+0x10>
     424:	05 c2       	rjmp	.+1034   	; 0x830 <fan_active+0x41a>
     426:	20 91 78 02 	lds	r18, 0x0278	; 0x800278 <run_stop>
     42a:	30 91 79 02 	lds	r19, 0x0279	; 0x800279 <run_stop+0x1>
     42e:	21 30       	cpi	r18, 0x01	; 1
     430:	31 05       	cpc	r19, r1
     432:	09 f0       	breq	.+2      	; 0x436 <fan_active+0x20>
     434:	fd c1       	rjmp	.+1018   	; 0x830 <fan_active+0x41a>
	{
		if(water_time > 0 && rinse_time > 0)
     436:	80 91 04 01 	lds	r24, 0x0104	; 0x800104 <water_time>
     43a:	90 91 05 01 	lds	r25, 0x0105	; 0x800105 <water_time+0x1>
     43e:	18 16       	cp	r1, r24
     440:	19 06       	cpc	r1, r25
     442:	0c f0       	brlt	.+2      	; 0x446 <fan_active+0x30>
     444:	99 c1       	rjmp	.+818    	; 0x778 <fan_active+0x362>
     446:	20 91 74 02 	lds	r18, 0x0274	; 0x800274 <rinse_time>
     44a:	30 91 75 02 	lds	r19, 0x0275	; 0x800275 <rinse_time+0x1>
     44e:	12 16       	cp	r1, r18
     450:	13 06       	cpc	r1, r19
     452:	0c f0       	brlt	.+2      	; 0x456 <fan_active+0x40>
     454:	91 c1       	rjmp	.+802    	; 0x778 <fan_active+0x362>
		{
			if(machine_s_timer >= 0 && machine_s_timer < water_time)
     456:	40 91 8a 02 	lds	r20, 0x028A	; 0x80028a <machine_s_timer>
     45a:	50 91 8b 02 	lds	r21, 0x028B	; 0x80028b <machine_s_timer+0x1>
     45e:	55 23       	and	r21, r21
     460:	ec f0       	brlt	.+58     	; 0x49c <fan_active+0x86>
     462:	40 91 8a 02 	lds	r20, 0x028A	; 0x80028a <machine_s_timer>
     466:	50 91 8b 02 	lds	r21, 0x028B	; 0x80028b <machine_s_timer+0x1>
     46a:	48 17       	cp	r20, r24
     46c:	59 07       	cpc	r21, r25
     46e:	b4 f4       	brge	.+44     	; 0x49c <fan_active+0x86>
			{
				OCR3C = 0;
     470:	10 92 83 00 	sts	0x0083, r1	; 0x800083 <__TEXT_REGION_LENGTH__+0x7e0083>
     474:	10 92 82 00 	sts	0x0082, r1	; 0x800082 <__TEXT_REGION_LENGTH__+0x7e0082>
				if(machine_s_timer < water_time - 2)
     478:	80 91 04 01 	lds	r24, 0x0104	; 0x800104 <water_time>
     47c:	90 91 05 01 	lds	r25, 0x0105	; 0x800105 <water_time+0x1>
     480:	02 97       	sbiw	r24, 0x02	; 2
     482:	20 91 8a 02 	lds	r18, 0x028A	; 0x80028a <machine_s_timer>
     486:	30 91 8b 02 	lds	r19, 0x028B	; 0x80028b <machine_s_timer+0x1>
     48a:	28 17       	cp	r18, r24
     48c:	39 07       	cpc	r19, r25
     48e:	0c f0       	brlt	.+2      	; 0x492 <fan_active+0x7c>
     490:	db c1       	rjmp	.+950    	; 0x848 <fan_active+0x432>
					fan_timer = 0;
     492:	10 92 87 02 	sts	0x0287, r1	; 0x800287 <fan_timer+0x1>
     496:	10 92 86 02 	sts	0x0286, r1	; 0x800286 <fan_timer>
     49a:	08 95       	ret
			}
			else if(machine_s_timer >= water_time && machine_s_timer < (water_time + wash_time))
     49c:	40 91 8a 02 	lds	r20, 0x028A	; 0x80028a <machine_s_timer>
     4a0:	50 91 8b 02 	lds	r21, 0x028B	; 0x80028b <machine_s_timer+0x1>
     4a4:	48 17       	cp	r20, r24
     4a6:	59 07       	cpc	r21, r25
     4a8:	e4 f1       	brlt	.+120    	; 0x522 <fan_active+0x10c>
     4aa:	40 91 76 02 	lds	r20, 0x0276	; 0x800276 <wash_time>
     4ae:	50 91 77 02 	lds	r21, 0x0277	; 0x800277 <wash_time+0x1>
     4b2:	48 0f       	add	r20, r24
     4b4:	59 1f       	adc	r21, r25
     4b6:	60 91 8a 02 	lds	r22, 0x028A	; 0x80028a <machine_s_timer>
     4ba:	70 91 8b 02 	lds	r23, 0x028B	; 0x80028b <machine_s_timer+0x1>
     4be:	64 17       	cp	r22, r20
     4c0:	75 07       	cpc	r23, r21
     4c2:	7c f5       	brge	.+94     	; 0x522 <fan_active+0x10c>
			{
				if(fan_timer > 2000)		// 2초
     4c4:	80 91 86 02 	lds	r24, 0x0286	; 0x800286 <fan_timer>
     4c8:	90 91 87 02 	lds	r25, 0x0287	; 0x800287 <fan_timer+0x1>
     4cc:	81 3d       	cpi	r24, 0xD1	; 209
     4ce:	97 40       	sbci	r25, 0x07	; 7
     4d0:	0c f4       	brge	.+2      	; 0x4d4 <fan_active+0xbe>
     4d2:	ba c1       	rjmp	.+884    	; 0x848 <fan_active+0x432>
				{
					fan_timer = 0;
     4d4:	10 92 87 02 	sts	0x0287, r1	; 0x800287 <fan_timer+0x1>
     4d8:	10 92 86 02 	sts	0x0286, r1	; 0x800286 <fan_timer>
					wash_state = !wash_state;
     4dc:	81 e0       	ldi	r24, 0x01	; 1
     4de:	90 91 6d 02 	lds	r25, 0x026D	; 0x80026d <wash_state.2078>
     4e2:	91 11       	cpse	r25, r1
     4e4:	80 e0       	ldi	r24, 0x00	; 0
     4e6:	80 93 6d 02 	sts	0x026D, r24	; 0x80026d <wash_state.2078>
					if(wash_state)
     4ea:	88 23       	and	r24, r24
     4ec:	69 f0       	breq	.+26     	; 0x508 <fan_active+0xf2>
					{
						// 정회전 PE2 : 0 / PE0 : 1
						PORTE &= 0b11111011;
     4ee:	83 b1       	in	r24, 0x03	; 3
     4f0:	8b 7f       	andi	r24, 0xFB	; 251
     4f2:	83 b9       	out	0x03, r24	; 3
						PORTE |= 0b00000001;
     4f4:	83 b1       	in	r24, 0x03	; 3
     4f6:	81 60       	ori	r24, 0x01	; 1
     4f8:	83 b9       	out	0x03, r24	; 3
						OCR3C = 120;
     4fa:	88 e7       	ldi	r24, 0x78	; 120
     4fc:	90 e0       	ldi	r25, 0x00	; 0
     4fe:	90 93 83 00 	sts	0x0083, r25	; 0x800083 <__TEXT_REGION_LENGTH__+0x7e0083>
     502:	80 93 82 00 	sts	0x0082, r24	; 0x800082 <__TEXT_REGION_LENGTH__+0x7e0082>
     506:	08 95       	ret
					}
					else
					{
						// 역회전 PE2 : 1 / PE0 : 0
						PORTE &= 0b11111110;
     508:	83 b1       	in	r24, 0x03	; 3
     50a:	8e 7f       	andi	r24, 0xFE	; 254
     50c:	83 b9       	out	0x03, r24	; 3
						PORTE |= 0b00000100;
     50e:	83 b1       	in	r24, 0x03	; 3
     510:	84 60       	ori	r24, 0x04	; 4
     512:	83 b9       	out	0x03, r24	; 3
						OCR3C = 120;
     514:	88 e7       	ldi	r24, 0x78	; 120
     516:	90 e0       	ldi	r25, 0x00	; 0
     518:	90 93 83 00 	sts	0x0083, r25	; 0x800083 <__TEXT_REGION_LENGTH__+0x7e0083>
     51c:	80 93 82 00 	sts	0x0082, r24	; 0x800082 <__TEXT_REGION_LENGTH__+0x7e0082>
     520:	08 95       	ret
					}
				}
				
			}
			else if(machine_s_timer >= water_time + wash_time && machine_s_timer < wash_time + 2*water_time)
     522:	60 91 76 02 	lds	r22, 0x0276	; 0x800276 <wash_time>
     526:	70 91 77 02 	lds	r23, 0x0277	; 0x800277 <wash_time+0x1>
     52a:	fc 01       	movw	r30, r24
     52c:	e6 0f       	add	r30, r22
     52e:	f7 1f       	adc	r31, r23
     530:	40 91 8a 02 	lds	r20, 0x028A	; 0x80028a <machine_s_timer>
     534:	50 91 8b 02 	lds	r21, 0x028B	; 0x80028b <machine_s_timer+0x1>
     538:	4e 17       	cp	r20, r30
     53a:	5f 07       	cpc	r21, r31
     53c:	8c f0       	brlt	.+34     	; 0x560 <fan_active+0x14a>
     53e:	ac 01       	movw	r20, r24
     540:	44 0f       	add	r20, r20
     542:	55 1f       	adc	r21, r21
     544:	46 0f       	add	r20, r22
     546:	57 1f       	adc	r21, r23
     548:	e0 91 8a 02 	lds	r30, 0x028A	; 0x80028a <machine_s_timer>
     54c:	f0 91 8b 02 	lds	r31, 0x028B	; 0x80028b <machine_s_timer+0x1>
     550:	e4 17       	cp	r30, r20
     552:	f5 07       	cpc	r31, r21
     554:	2c f4       	brge	.+10     	; 0x560 <fan_active+0x14a>
			{
				OCR3C = 0;
     556:	10 92 83 00 	sts	0x0083, r1	; 0x800083 <__TEXT_REGION_LENGTH__+0x7e0083>
     55a:	10 92 82 00 	sts	0x0082, r1	; 0x800082 <__TEXT_REGION_LENGTH__+0x7e0082>
     55e:	08 95       	ret
			}
			else if(machine_s_timer >= wash_time + 2*water_time && machine_s_timer < wash_time + 3*water_time)
     560:	ac 01       	movw	r20, r24
     562:	44 0f       	add	r20, r20
     564:	55 1f       	adc	r21, r21
     566:	46 0f       	add	r20, r22
     568:	57 1f       	adc	r21, r23
     56a:	e0 91 8a 02 	lds	r30, 0x028A	; 0x80028a <machine_s_timer>
     56e:	f0 91 8b 02 	lds	r31, 0x028B	; 0x80028b <machine_s_timer+0x1>
     572:	e4 17       	cp	r30, r20
     574:	f5 07       	cpc	r31, r21
     576:	7c f1       	brlt	.+94     	; 0x5d6 <fan_active+0x1c0>
     578:	ac 01       	movw	r20, r24
     57a:	44 0f       	add	r20, r20
     57c:	55 1f       	adc	r21, r21
     57e:	48 0f       	add	r20, r24
     580:	59 1f       	adc	r21, r25
     582:	46 0f       	add	r20, r22
     584:	57 1f       	adc	r21, r23
     586:	e0 91 8a 02 	lds	r30, 0x028A	; 0x80028a <machine_s_timer>
     58a:	f0 91 8b 02 	lds	r31, 0x028B	; 0x80028b <machine_s_timer+0x1>
     58e:	e4 17       	cp	r30, r20
     590:	f5 07       	cpc	r31, r21
     592:	0c f5       	brge	.+66     	; 0x5d6 <fan_active+0x1c0>
			{
				OCR3C = 0;
     594:	10 92 83 00 	sts	0x0083, r1	; 0x800083 <__TEXT_REGION_LENGTH__+0x7e0083>
     598:	10 92 82 00 	sts	0x0082, r1	; 0x800082 <__TEXT_REGION_LENGTH__+0x7e0082>
				if(machine_s_timer < wash_time + 3*water_time - 2)
     59c:	80 91 04 01 	lds	r24, 0x0104	; 0x800104 <water_time>
     5a0:	90 91 05 01 	lds	r25, 0x0105	; 0x800105 <water_time+0x1>
     5a4:	9c 01       	movw	r18, r24
     5a6:	22 0f       	add	r18, r18
     5a8:	33 1f       	adc	r19, r19
     5aa:	28 0f       	add	r18, r24
     5ac:	39 1f       	adc	r19, r25
     5ae:	80 91 76 02 	lds	r24, 0x0276	; 0x800276 <wash_time>
     5b2:	90 91 77 02 	lds	r25, 0x0277	; 0x800277 <wash_time+0x1>
     5b6:	82 0f       	add	r24, r18
     5b8:	93 1f       	adc	r25, r19
     5ba:	02 97       	sbiw	r24, 0x02	; 2
     5bc:	20 91 8a 02 	lds	r18, 0x028A	; 0x80028a <machine_s_timer>
     5c0:	30 91 8b 02 	lds	r19, 0x028B	; 0x80028b <machine_s_timer+0x1>
     5c4:	28 17       	cp	r18, r24
     5c6:	39 07       	cpc	r19, r25
     5c8:	0c f0       	brlt	.+2      	; 0x5cc <fan_active+0x1b6>
     5ca:	3e c1       	rjmp	.+636    	; 0x848 <fan_active+0x432>
					fan_timer = 0;
     5cc:	10 92 87 02 	sts	0x0287, r1	; 0x800287 <fan_timer+0x1>
     5d0:	10 92 86 02 	sts	0x0286, r1	; 0x800286 <fan_timer>
     5d4:	08 95       	ret
			}
			else if(machine_s_timer >= wash_time + 3*water_time && machine_s_timer < wash_time + 3*water_time + rinse_time)
     5d6:	ac 01       	movw	r20, r24
     5d8:	44 0f       	add	r20, r20
     5da:	55 1f       	adc	r21, r21
     5dc:	48 0f       	add	r20, r24
     5de:	59 1f       	adc	r21, r25
     5e0:	46 0f       	add	r20, r22
     5e2:	57 1f       	adc	r21, r23
     5e4:	e0 91 8a 02 	lds	r30, 0x028A	; 0x80028a <machine_s_timer>
     5e8:	f0 91 8b 02 	lds	r31, 0x028B	; 0x80028b <machine_s_timer+0x1>
     5ec:	e4 17       	cp	r30, r20
     5ee:	f5 07       	cpc	r31, r21
     5f0:	cc f1       	brlt	.+114    	; 0x664 <fan_active+0x24e>
     5f2:	a0 91 8a 02 	lds	r26, 0x028A	; 0x80028a <machine_s_timer>
     5f6:	b0 91 8b 02 	lds	r27, 0x028B	; 0x80028b <machine_s_timer+0x1>
     5fa:	f9 01       	movw	r30, r18
     5fc:	e4 0f       	add	r30, r20
     5fe:	f5 1f       	adc	r31, r21
     600:	ae 17       	cp	r26, r30
     602:	bf 07       	cpc	r27, r31
     604:	7c f5       	brge	.+94     	; 0x664 <fan_active+0x24e>
			{
				if(fan_timer > 2000)		// 2초
     606:	80 91 86 02 	lds	r24, 0x0286	; 0x800286 <fan_timer>
     60a:	90 91 87 02 	lds	r25, 0x0287	; 0x800287 <fan_timer+0x1>
     60e:	81 3d       	cpi	r24, 0xD1	; 209
     610:	97 40       	sbci	r25, 0x07	; 7
     612:	0c f4       	brge	.+2      	; 0x616 <fan_active+0x200>
     614:	19 c1       	rjmp	.+562    	; 0x848 <fan_active+0x432>
				{
					fan_timer = 0;
     616:	10 92 87 02 	sts	0x0287, r1	; 0x800287 <fan_timer+0x1>
     61a:	10 92 86 02 	sts	0x0286, r1	; 0x800286 <fan_timer>
					rinse_state = !rinse_state;
     61e:	81 e0       	ldi	r24, 0x01	; 1
     620:	90 91 6c 02 	lds	r25, 0x026C	; 0x80026c <rinse_state.2079>
     624:	91 11       	cpse	r25, r1
     626:	80 e0       	ldi	r24, 0x00	; 0
     628:	80 93 6c 02 	sts	0x026C, r24	; 0x80026c <rinse_state.2079>
					if(rinse_state)
     62c:	88 23       	and	r24, r24
     62e:	69 f0       	breq	.+26     	; 0x64a <fan_active+0x234>
					{
						// 정회전 PE2 : 0 / PE0 : 1
						PORTE &= 0b11111011;
     630:	83 b1       	in	r24, 0x03	; 3
     632:	8b 7f       	andi	r24, 0xFB	; 251
     634:	83 b9       	out	0x03, r24	; 3
						PORTE |= 0b00000001;
     636:	83 b1       	in	r24, 0x03	; 3
     638:	81 60       	ori	r24, 0x01	; 1
     63a:	83 b9       	out	0x03, r24	; 3
						OCR3C = 100;
     63c:	84 e6       	ldi	r24, 0x64	; 100
     63e:	90 e0       	ldi	r25, 0x00	; 0
     640:	90 93 83 00 	sts	0x0083, r25	; 0x800083 <__TEXT_REGION_LENGTH__+0x7e0083>
     644:	80 93 82 00 	sts	0x0082, r24	; 0x800082 <__TEXT_REGION_LENGTH__+0x7e0082>
     648:	08 95       	ret
					}
					else
					{
						// 역회전 PE2 : 1 / PE0 : 0
						PORTE &= 0b11111110;
     64a:	83 b1       	in	r24, 0x03	; 3
     64c:	8e 7f       	andi	r24, 0xFE	; 254
     64e:	83 b9       	out	0x03, r24	; 3
						PORTE |= 0b00000100;
     650:	83 b1       	in	r24, 0x03	; 3
     652:	84 60       	ori	r24, 0x04	; 4
     654:	83 b9       	out	0x03, r24	; 3
						OCR3C = 100;
     656:	84 e6       	ldi	r24, 0x64	; 100
     658:	90 e0       	ldi	r25, 0x00	; 0
     65a:	90 93 83 00 	sts	0x0083, r25	; 0x800083 <__TEXT_REGION_LENGTH__+0x7e0083>
     65e:	80 93 82 00 	sts	0x0082, r24	; 0x800082 <__TEXT_REGION_LENGTH__+0x7e0082>
     662:	08 95       	ret
					}
				}
			}
			else if(machine_s_timer >= wash_time + 3*water_time + rinse_time && machine_s_timer < wash_time + 4*water_time + rinse_time)
     664:	42 0f       	add	r20, r18
     666:	53 1f       	adc	r21, r19
     668:	e0 91 8a 02 	lds	r30, 0x028A	; 0x80028a <machine_s_timer>
     66c:	f0 91 8b 02 	lds	r31, 0x028B	; 0x80028b <machine_s_timer+0x1>
     670:	e4 17       	cp	r30, r20
     672:	f5 07       	cpc	r31, r21
     674:	ac f0       	brlt	.+42     	; 0x6a0 <fan_active+0x28a>
     676:	ac 01       	movw	r20, r24
     678:	44 0f       	add	r20, r20
     67a:	55 1f       	adc	r21, r21
     67c:	44 0f       	add	r20, r20
     67e:	55 1f       	adc	r21, r21
     680:	46 0f       	add	r20, r22
     682:	57 1f       	adc	r21, r23
     684:	42 0f       	add	r20, r18
     686:	53 1f       	adc	r21, r19
     688:	e0 91 8a 02 	lds	r30, 0x028A	; 0x80028a <machine_s_timer>
     68c:	f0 91 8b 02 	lds	r31, 0x028B	; 0x80028b <machine_s_timer+0x1>
     690:	e4 17       	cp	r30, r20
     692:	f5 07       	cpc	r31, r21
     694:	2c f4       	brge	.+10     	; 0x6a0 <fan_active+0x28a>
			{
				OCR3C = 0;
     696:	10 92 83 00 	sts	0x0083, r1	; 0x800083 <__TEXT_REGION_LENGTH__+0x7e0083>
     69a:	10 92 82 00 	sts	0x0082, r1	; 0x800082 <__TEXT_REGION_LENGTH__+0x7e0082>
     69e:	08 95       	ret
			}
			else if(machine_s_timer >= wash_time + 4*water_time + rinse_time && machine_s_timer < wash_time + 4*water_time + rinse_time + spindry_time)
     6a0:	88 0f       	add	r24, r24
     6a2:	99 1f       	adc	r25, r25
     6a4:	88 0f       	add	r24, r24
     6a6:	99 1f       	adc	r25, r25
     6a8:	86 0f       	add	r24, r22
     6aa:	97 1f       	adc	r25, r23
     6ac:	82 0f       	add	r24, r18
     6ae:	93 1f       	adc	r25, r19
     6b0:	20 91 8a 02 	lds	r18, 0x028A	; 0x80028a <machine_s_timer>
     6b4:	30 91 8b 02 	lds	r19, 0x028B	; 0x80028b <machine_s_timer+0x1>
     6b8:	28 17       	cp	r18, r24
     6ba:	39 07       	cpc	r19, r25
     6bc:	0c f4       	brge	.+2      	; 0x6c0 <fan_active+0x2aa>
     6be:	41 c0       	rjmp	.+130    	; 0x742 <fan_active+0x32c>
     6c0:	20 91 02 01 	lds	r18, 0x0102	; 0x800102 <spindry_time>
     6c4:	30 91 03 01 	lds	r19, 0x0103	; 0x800103 <spindry_time+0x1>
     6c8:	28 0f       	add	r18, r24
     6ca:	39 1f       	adc	r19, r25
     6cc:	40 91 8a 02 	lds	r20, 0x028A	; 0x80028a <machine_s_timer>
     6d0:	50 91 8b 02 	lds	r21, 0x028B	; 0x80028b <machine_s_timer+0x1>
     6d4:	42 17       	cp	r20, r18
     6d6:	53 07       	cpc	r21, r19
     6d8:	a4 f5       	brge	.+104    	; 0x742 <fan_active+0x32c>
			{
				if(spindry_strength == 1)
     6da:	80 91 06 01 	lds	r24, 0x0106	; 0x800106 <spindry_strength>
     6de:	90 91 07 01 	lds	r25, 0x0107	; 0x800107 <spindry_strength+0x1>
     6e2:	81 30       	cpi	r24, 0x01	; 1
     6e4:	91 05       	cpc	r25, r1
     6e6:	69 f4       	brne	.+26     	; 0x702 <fan_active+0x2ec>
				{
					PORTE &= 0b11111011;
     6e8:	83 b1       	in	r24, 0x03	; 3
     6ea:	8b 7f       	andi	r24, 0xFB	; 251
     6ec:	83 b9       	out	0x03, r24	; 3
					
					
					PORTE |= 0b00000001;
     6ee:	83 b1       	in	r24, 0x03	; 3
     6f0:	81 60       	ori	r24, 0x01	; 1
     6f2:	83 b9       	out	0x03, r24	; 3
					OCR3C = 100;
     6f4:	84 e6       	ldi	r24, 0x64	; 100
     6f6:	90 e0       	ldi	r25, 0x00	; 0
     6f8:	90 93 83 00 	sts	0x0083, r25	; 0x800083 <__TEXT_REGION_LENGTH__+0x7e0083>
     6fc:	80 93 82 00 	sts	0x0082, r24	; 0x800082 <__TEXT_REGION_LENGTH__+0x7e0082>
     700:	08 95       	ret
				}
				else if(spindry_strength == 2)
     702:	82 30       	cpi	r24, 0x02	; 2
     704:	91 05       	cpc	r25, r1
     706:	69 f4       	brne	.+26     	; 0x722 <fan_active+0x30c>
				{
					PORTE &= 0b11111011;
     708:	83 b1       	in	r24, 0x03	; 3
     70a:	8b 7f       	andi	r24, 0xFB	; 251
     70c:	83 b9       	out	0x03, r24	; 3
					PORTE |= 0b00000001;
     70e:	83 b1       	in	r24, 0x03	; 3
     710:	81 60       	ori	r24, 0x01	; 1
     712:	83 b9       	out	0x03, r24	; 3
					OCR3C = 175;
     714:	8f ea       	ldi	r24, 0xAF	; 175
     716:	90 e0       	ldi	r25, 0x00	; 0
     718:	90 93 83 00 	sts	0x0083, r25	; 0x800083 <__TEXT_REGION_LENGTH__+0x7e0083>
     71c:	80 93 82 00 	sts	0x0082, r24	; 0x800082 <__TEXT_REGION_LENGTH__+0x7e0082>
     720:	08 95       	ret
				}
				else if(spindry_strength == 3)
     722:	03 97       	sbiw	r24, 0x03	; 3
     724:	09 f0       	breq	.+2      	; 0x728 <fan_active+0x312>
     726:	90 c0       	rjmp	.+288    	; 0x848 <fan_active+0x432>
				{
					PORTE &= 0b11111011;
     728:	83 b1       	in	r24, 0x03	; 3
     72a:	8b 7f       	andi	r24, 0xFB	; 251
     72c:	83 b9       	out	0x03, r24	; 3
					PORTE |= 0b00000001;
     72e:	83 b1       	in	r24, 0x03	; 3
     730:	81 60       	ori	r24, 0x01	; 1
     732:	83 b9       	out	0x03, r24	; 3
					OCR3C = 250;
     734:	8a ef       	ldi	r24, 0xFA	; 250
     736:	90 e0       	ldi	r25, 0x00	; 0
     738:	90 93 83 00 	sts	0x0083, r25	; 0x800083 <__TEXT_REGION_LENGTH__+0x7e0083>
     73c:	80 93 82 00 	sts	0x0082, r24	; 0x800082 <__TEXT_REGION_LENGTH__+0x7e0082>
     740:	08 95       	ret
				}
				
			}
			else if(machine_s_timer >= wash_time + 4*water_time + rinse_time + spindry_time)
     742:	20 91 02 01 	lds	r18, 0x0102	; 0x800102 <spindry_time>
     746:	30 91 03 01 	lds	r19, 0x0103	; 0x800103 <spindry_time+0x1>
     74a:	82 0f       	add	r24, r18
     74c:	93 1f       	adc	r25, r19
     74e:	20 91 8a 02 	lds	r18, 0x028A	; 0x80028a <machine_s_timer>
     752:	30 91 8b 02 	lds	r19, 0x028B	; 0x80028b <machine_s_timer+0x1>
     756:	28 17       	cp	r18, r24
     758:	39 07       	cpc	r19, r25
     75a:	0c f4       	brge	.+2      	; 0x75e <fan_active+0x348>
     75c:	75 c0       	rjmp	.+234    	; 0x848 <fan_active+0x432>
			{
				fan_timer = 0;
     75e:	10 92 87 02 	sts	0x0287, r1	; 0x800287 <fan_timer+0x1>
     762:	10 92 86 02 	sts	0x0286, r1	; 0x800286 <fan_timer>
				wash_state = 0;
     766:	10 92 6d 02 	sts	0x026D, r1	; 0x80026d <wash_state.2078>
				rinse_state = 0;
     76a:	10 92 6c 02 	sts	0x026C, r1	; 0x80026c <rinse_state.2079>
				OCR3C = 0;
     76e:	10 92 83 00 	sts	0x0083, r1	; 0x800083 <__TEXT_REGION_LENGTH__+0x7e0083>
     772:	10 92 82 00 	sts	0x0082, r1	; 0x800082 <__TEXT_REGION_LENGTH__+0x7e0082>
     776:	08 95       	ret
			}
		}
		
		else          // 건조만 하는 경우 (water_time = 0 & rinse_time = 0)
		{
			if(machine_s_timer >= 0 && machine_s_timer < spindry_time)
     778:	80 91 8a 02 	lds	r24, 0x028A	; 0x80028a <machine_s_timer>
     77c:	90 91 8b 02 	lds	r25, 0x028B	; 0x80028b <machine_s_timer+0x1>
     780:	99 23       	and	r25, r25
     782:	f4 f1       	brlt	.+124    	; 0x800 <fan_active+0x3ea>
     784:	20 91 8a 02 	lds	r18, 0x028A	; 0x80028a <machine_s_timer>
     788:	30 91 8b 02 	lds	r19, 0x028B	; 0x80028b <machine_s_timer+0x1>
     78c:	80 91 02 01 	lds	r24, 0x0102	; 0x800102 <spindry_time>
     790:	90 91 03 01 	lds	r25, 0x0103	; 0x800103 <spindry_time+0x1>
     794:	28 17       	cp	r18, r24
     796:	39 07       	cpc	r19, r25
     798:	9c f5       	brge	.+102    	; 0x800 <fan_active+0x3ea>
			{
				if(spindry_strength == 1)
     79a:	80 91 06 01 	lds	r24, 0x0106	; 0x800106 <spindry_strength>
     79e:	90 91 07 01 	lds	r25, 0x0107	; 0x800107 <spindry_strength+0x1>
     7a2:	81 30       	cpi	r24, 0x01	; 1
     7a4:	91 05       	cpc	r25, r1
     7a6:	69 f4       	brne	.+26     	; 0x7c2 <fan_active+0x3ac>
				{
					PORTE &= 0b11111011;
     7a8:	83 b1       	in	r24, 0x03	; 3
     7aa:	8b 7f       	andi	r24, 0xFB	; 251
     7ac:	83 b9       	out	0x03, r24	; 3
					PORTE |= 0b00000001;
     7ae:	83 b1       	in	r24, 0x03	; 3
     7b0:	81 60       	ori	r24, 0x01	; 1
     7b2:	83 b9       	out	0x03, r24	; 3
					OCR3C = 100;
     7b4:	84 e6       	ldi	r24, 0x64	; 100
     7b6:	90 e0       	ldi	r25, 0x00	; 0
     7b8:	90 93 83 00 	sts	0x0083, r25	; 0x800083 <__TEXT_REGION_LENGTH__+0x7e0083>
     7bc:	80 93 82 00 	sts	0x0082, r24	; 0x800082 <__TEXT_REGION_LENGTH__+0x7e0082>
     7c0:	08 95       	ret
				}
				else if(spindry_strength == 2)
     7c2:	82 30       	cpi	r24, 0x02	; 2
     7c4:	91 05       	cpc	r25, r1
     7c6:	69 f4       	brne	.+26     	; 0x7e2 <fan_active+0x3cc>
				{
					PORTE &= 0b11111011;
     7c8:	83 b1       	in	r24, 0x03	; 3
     7ca:	8b 7f       	andi	r24, 0xFB	; 251
     7cc:	83 b9       	out	0x03, r24	; 3
					PORTE |= 0b00000001;
     7ce:	83 b1       	in	r24, 0x03	; 3
     7d0:	81 60       	ori	r24, 0x01	; 1
     7d2:	83 b9       	out	0x03, r24	; 3
					OCR3C = 175;
     7d4:	8f ea       	ldi	r24, 0xAF	; 175
     7d6:	90 e0       	ldi	r25, 0x00	; 0
     7d8:	90 93 83 00 	sts	0x0083, r25	; 0x800083 <__TEXT_REGION_LENGTH__+0x7e0083>
     7dc:	80 93 82 00 	sts	0x0082, r24	; 0x800082 <__TEXT_REGION_LENGTH__+0x7e0082>
     7e0:	08 95       	ret
				}
				else if(spindry_strength == 3)
     7e2:	03 97       	sbiw	r24, 0x03	; 3
     7e4:	89 f5       	brne	.+98     	; 0x848 <fan_active+0x432>
				{
					PORTE &= 0b11111011;
     7e6:	83 b1       	in	r24, 0x03	; 3
     7e8:	8b 7f       	andi	r24, 0xFB	; 251
     7ea:	83 b9       	out	0x03, r24	; 3
					PORTE |= 0b00000001;
     7ec:	83 b1       	in	r24, 0x03	; 3
     7ee:	81 60       	ori	r24, 0x01	; 1
     7f0:	83 b9       	out	0x03, r24	; 3
					OCR3C = 250;
     7f2:	8a ef       	ldi	r24, 0xFA	; 250
     7f4:	90 e0       	ldi	r25, 0x00	; 0
     7f6:	90 93 83 00 	sts	0x0083, r25	; 0x800083 <__TEXT_REGION_LENGTH__+0x7e0083>
     7fa:	80 93 82 00 	sts	0x0082, r24	; 0x800082 <__TEXT_REGION_LENGTH__+0x7e0082>
     7fe:	08 95       	ret
				}
			}
			else if(machine_s_timer >= spindry_time)
     800:	20 91 8a 02 	lds	r18, 0x028A	; 0x80028a <machine_s_timer>
     804:	30 91 8b 02 	lds	r19, 0x028B	; 0x80028b <machine_s_timer+0x1>
     808:	80 91 02 01 	lds	r24, 0x0102	; 0x800102 <spindry_time>
     80c:	90 91 03 01 	lds	r25, 0x0103	; 0x800103 <spindry_time+0x1>
     810:	28 17       	cp	r18, r24
     812:	39 07       	cpc	r19, r25
     814:	cc f0       	brlt	.+50     	; 0x848 <fan_active+0x432>
			{
				fan_timer = 0;
     816:	10 92 87 02 	sts	0x0287, r1	; 0x800287 <fan_timer+0x1>
     81a:	10 92 86 02 	sts	0x0286, r1	; 0x800286 <fan_timer>
				wash_state = 0;
     81e:	10 92 6d 02 	sts	0x026D, r1	; 0x80026d <wash_state.2078>
				rinse_state = 0;
     822:	10 92 6c 02 	sts	0x026C, r1	; 0x80026c <rinse_state.2079>
				OCR3C = 0;
     826:	10 92 83 00 	sts	0x0083, r1	; 0x800083 <__TEXT_REGION_LENGTH__+0x7e0083>
     82a:	10 92 82 00 	sts	0x0082, r1	; 0x800082 <__TEXT_REGION_LENGTH__+0x7e0082>
     82e:	08 95       	ret
			}
		}
	}
	else if (set_reset == ACTIVE && run_stop == STOP)		// 세탁기 일시 정지
     830:	02 97       	sbiw	r24, 0x02	; 2
     832:	51 f4       	brne	.+20     	; 0x848 <fan_active+0x432>
     834:	80 91 78 02 	lds	r24, 0x0278	; 0x800278 <run_stop>
     838:	90 91 79 02 	lds	r25, 0x0279	; 0x800279 <run_stop+0x1>
     83c:	02 97       	sbiw	r24, 0x02	; 2
     83e:	21 f4       	brne	.+8      	; 0x848 <fan_active+0x432>
	{
		OCR3C = 0;
     840:	10 92 83 00 	sts	0x0083, r1	; 0x800083 <__TEXT_REGION_LENGTH__+0x7e0083>
     844:	10 92 82 00 	sts	0x0082, r1	; 0x800082 <__TEXT_REGION_LENGTH__+0x7e0082>
     848:	08 95       	ret

0000084a <init_fnd>:
     84a:	9f ef       	ldi	r25, 0xFF	; 255
     84c:	94 bb       	out	0x14, r25	; 20
     84e:	87 b3       	in	r24, 0x17	; 23
     850:	8e 61       	ori	r24, 0x1E	; 30
     852:	87 bb       	out	0x17, r24	; 23
     854:	95 bb       	out	0x15, r25	; 21
     856:	08 95       	ret

00000858 <not_display_fnd>:
     858:	80 91 6e 02 	lds	r24, 0x026E	; 0x80026e <digit_position>
     85c:	90 91 6f 02 	lds	r25, 0x026F	; 0x80026f <digit_position+0x1>
     860:	81 30       	cpi	r24, 0x01	; 1
     862:	91 05       	cpc	r25, r1
     864:	79 f0       	breq	.+30     	; 0x884 <not_display_fnd+0x2c>
     866:	1c f4       	brge	.+6      	; 0x86e <not_display_fnd+0x16>
     868:	89 2b       	or	r24, r25
     86a:	39 f0       	breq	.+14     	; 0x87a <not_display_fnd+0x22>
     86c:	19 c0       	rjmp	.+50     	; 0x8a0 <not_display_fnd+0x48>
     86e:	82 30       	cpi	r24, 0x02	; 2
     870:	91 05       	cpc	r25, r1
     872:	69 f0       	breq	.+26     	; 0x88e <not_display_fnd+0x36>
     874:	03 97       	sbiw	r24, 0x03	; 3
     876:	81 f0       	breq	.+32     	; 0x898 <not_display_fnd+0x40>
     878:	13 c0       	rjmp	.+38     	; 0x8a0 <not_display_fnd+0x48>
     87a:	82 e0       	ldi	r24, 0x02	; 2
     87c:	88 bb       	out	0x18, r24	; 24
     87e:	8f ef       	ldi	r24, 0xFF	; 255
     880:	85 bb       	out	0x15, r24	; 21
     882:	0e c0       	rjmp	.+28     	; 0x8a0 <not_display_fnd+0x48>
     884:	84 e0       	ldi	r24, 0x04	; 4
     886:	88 bb       	out	0x18, r24	; 24
     888:	8f ef       	ldi	r24, 0xFF	; 255
     88a:	85 bb       	out	0x15, r24	; 21
     88c:	09 c0       	rjmp	.+18     	; 0x8a0 <not_display_fnd+0x48>
     88e:	88 e0       	ldi	r24, 0x08	; 8
     890:	88 bb       	out	0x18, r24	; 24
     892:	8f ef       	ldi	r24, 0xFF	; 255
     894:	85 bb       	out	0x15, r24	; 21
     896:	04 c0       	rjmp	.+8      	; 0x8a0 <not_display_fnd+0x48>
     898:	80 e1       	ldi	r24, 0x10	; 16
     89a:	88 bb       	out	0x18, r24	; 24
     89c:	8f ef       	ldi	r24, 0xFF	; 255
     89e:	85 bb       	out	0x15, r24	; 21
     8a0:	80 91 6e 02 	lds	r24, 0x026E	; 0x80026e <digit_position>
     8a4:	90 91 6f 02 	lds	r25, 0x026F	; 0x80026f <digit_position+0x1>
     8a8:	01 96       	adiw	r24, 0x01	; 1
     8aa:	83 70       	andi	r24, 0x03	; 3
     8ac:	90 78       	andi	r25, 0x80	; 128
     8ae:	99 23       	and	r25, r25
     8b0:	24 f4       	brge	.+8      	; 0x8ba <not_display_fnd+0x62>
     8b2:	01 97       	sbiw	r24, 0x01	; 1
     8b4:	8c 6f       	ori	r24, 0xFC	; 252
     8b6:	9f 6f       	ori	r25, 0xFF	; 255
     8b8:	01 96       	adiw	r24, 0x01	; 1
     8ba:	90 93 6f 02 	sts	0x026F, r25	; 0x80026f <digit_position+0x1>
     8be:	80 93 6e 02 	sts	0x026E, r24	; 0x80026e <digit_position>
     8c2:	08 95       	ret

000008c4 <display_fnd>:
     8c4:	cf 93       	push	r28
     8c6:	df 93       	push	r29
     8c8:	cd b7       	in	r28, 0x3d	; 61
     8ca:	de b7       	in	r29, 0x3e	; 62
     8cc:	2a 97       	sbiw	r28, 0x0a	; 10
     8ce:	0f b6       	in	r0, 0x3f	; 63
     8d0:	f8 94       	cli
     8d2:	de bf       	out	0x3e, r29	; 62
     8d4:	0f be       	out	0x3f, r0	; 63
     8d6:	cd bf       	out	0x3d, r28	; 61
     8d8:	ac 01       	movw	r20, r24
     8da:	9a e0       	ldi	r25, 0x0A	; 10
     8dc:	e8 e0       	ldi	r30, 0x08	; 8
     8de:	f1 e0       	ldi	r31, 0x01	; 1
     8e0:	de 01       	movw	r26, r28
     8e2:	11 96       	adiw	r26, 0x01	; 1
     8e4:	01 90       	ld	r0, Z+
     8e6:	0d 92       	st	X+, r0
     8e8:	9a 95       	dec	r25
     8ea:	e1 f7       	brne	.-8      	; 0x8e4 <display_fnd+0x20>
     8ec:	20 91 6e 02 	lds	r18, 0x026E	; 0x80026e <digit_position>
     8f0:	30 91 6f 02 	lds	r19, 0x026F	; 0x80026f <digit_position+0x1>
     8f4:	21 30       	cpi	r18, 0x01	; 1
     8f6:	31 05       	cpc	r19, r1
     8f8:	e9 f0       	breq	.+58     	; 0x934 <display_fnd+0x70>
     8fa:	1c f4       	brge	.+6      	; 0x902 <display_fnd+0x3e>
     8fc:	23 2b       	or	r18, r19
     8fe:	49 f0       	breq	.+18     	; 0x912 <display_fnd+0x4e>
     900:	5b c0       	rjmp	.+182    	; 0x9b8 <display_fnd+0xf4>
     902:	22 30       	cpi	r18, 0x02	; 2
     904:	31 05       	cpc	r19, r1
     906:	61 f1       	breq	.+88     	; 0x960 <display_fnd+0x9c>
     908:	23 30       	cpi	r18, 0x03	; 3
     90a:	31 05       	cpc	r19, r1
     90c:	09 f4       	brne	.+2      	; 0x910 <display_fnd+0x4c>
     90e:	3f c0       	rjmp	.+126    	; 0x98e <display_fnd+0xca>
     910:	53 c0       	rjmp	.+166    	; 0x9b8 <display_fnd+0xf4>
     912:	82 e0       	ldi	r24, 0x02	; 2
     914:	88 bb       	out	0x18, r24	; 24
     916:	ca 01       	movw	r24, r20
     918:	6a e0       	ldi	r22, 0x0A	; 10
     91a:	70 e0       	ldi	r23, 0x00	; 0
     91c:	0e 94 36 0f 	call	0x1e6c	; 0x1e6c <__divmodhi4>
     920:	e1 e0       	ldi	r30, 0x01	; 1
     922:	f0 e0       	ldi	r31, 0x00	; 0
     924:	ec 0f       	add	r30, r28
     926:	fd 1f       	adc	r31, r29
     928:	e8 0f       	add	r30, r24
     92a:	f9 1f       	adc	r31, r25
     92c:	80 81       	ld	r24, Z
     92e:	80 95       	com	r24
     930:	85 bb       	out	0x15, r24	; 21
     932:	42 c0       	rjmp	.+132    	; 0x9b8 <display_fnd+0xf4>
     934:	84 e0       	ldi	r24, 0x04	; 4
     936:	88 bb       	out	0x18, r24	; 24
     938:	ca 01       	movw	r24, r20
     93a:	6a e0       	ldi	r22, 0x0A	; 10
     93c:	70 e0       	ldi	r23, 0x00	; 0
     93e:	0e 94 36 0f 	call	0x1e6c	; 0x1e6c <__divmodhi4>
     942:	cb 01       	movw	r24, r22
     944:	66 e0       	ldi	r22, 0x06	; 6
     946:	70 e0       	ldi	r23, 0x00	; 0
     948:	0e 94 36 0f 	call	0x1e6c	; 0x1e6c <__divmodhi4>
     94c:	e1 e0       	ldi	r30, 0x01	; 1
     94e:	f0 e0       	ldi	r31, 0x00	; 0
     950:	ec 0f       	add	r30, r28
     952:	fd 1f       	adc	r31, r29
     954:	e8 0f       	add	r30, r24
     956:	f9 1f       	adc	r31, r25
     958:	80 81       	ld	r24, Z
     95a:	80 95       	com	r24
     95c:	85 bb       	out	0x15, r24	; 21
     95e:	2c c0       	rjmp	.+88     	; 0x9b8 <display_fnd+0xf4>
     960:	88 e0       	ldi	r24, 0x08	; 8
     962:	88 bb       	out	0x18, r24	; 24
     964:	ca 01       	movw	r24, r20
     966:	6c e3       	ldi	r22, 0x3C	; 60
     968:	70 e0       	ldi	r23, 0x00	; 0
     96a:	0e 94 36 0f 	call	0x1e6c	; 0x1e6c <__divmodhi4>
     96e:	cb 01       	movw	r24, r22
     970:	6a e0       	ldi	r22, 0x0A	; 10
     972:	70 e0       	ldi	r23, 0x00	; 0
     974:	0e 94 36 0f 	call	0x1e6c	; 0x1e6c <__divmodhi4>
     978:	e1 e0       	ldi	r30, 0x01	; 1
     97a:	f0 e0       	ldi	r31, 0x00	; 0
     97c:	ec 0f       	add	r30, r28
     97e:	fd 1f       	adc	r31, r29
     980:	e8 0f       	add	r30, r24
     982:	f9 1f       	adc	r31, r25
     984:	80 81       	ld	r24, Z
     986:	80 68       	ori	r24, 0x80	; 128
     988:	80 95       	com	r24
     98a:	85 bb       	out	0x15, r24	; 21
     98c:	15 c0       	rjmp	.+42     	; 0x9b8 <display_fnd+0xf4>
     98e:	80 e1       	ldi	r24, 0x10	; 16
     990:	88 bb       	out	0x18, r24	; 24
     992:	ca 01       	movw	r24, r20
     994:	68 e5       	ldi	r22, 0x58	; 88
     996:	72 e0       	ldi	r23, 0x02	; 2
     998:	0e 94 36 0f 	call	0x1e6c	; 0x1e6c <__divmodhi4>
     99c:	cb 01       	movw	r24, r22
     99e:	66 e0       	ldi	r22, 0x06	; 6
     9a0:	70 e0       	ldi	r23, 0x00	; 0
     9a2:	0e 94 36 0f 	call	0x1e6c	; 0x1e6c <__divmodhi4>
     9a6:	e1 e0       	ldi	r30, 0x01	; 1
     9a8:	f0 e0       	ldi	r31, 0x00	; 0
     9aa:	ec 0f       	add	r30, r28
     9ac:	fd 1f       	adc	r31, r29
     9ae:	e8 0f       	add	r30, r24
     9b0:	f9 1f       	adc	r31, r25
     9b2:	80 81       	ld	r24, Z
     9b4:	80 95       	com	r24
     9b6:	85 bb       	out	0x15, r24	; 21
     9b8:	80 91 6e 02 	lds	r24, 0x026E	; 0x80026e <digit_position>
     9bc:	90 91 6f 02 	lds	r25, 0x026F	; 0x80026f <digit_position+0x1>
     9c0:	01 96       	adiw	r24, 0x01	; 1
     9c2:	83 70       	andi	r24, 0x03	; 3
     9c4:	90 78       	andi	r25, 0x80	; 128
     9c6:	99 23       	and	r25, r25
     9c8:	24 f4       	brge	.+8      	; 0x9d2 <display_fnd+0x10e>
     9ca:	01 97       	sbiw	r24, 0x01	; 1
     9cc:	8c 6f       	ori	r24, 0xFC	; 252
     9ce:	9f 6f       	ori	r25, 0xFF	; 255
     9d0:	01 96       	adiw	r24, 0x01	; 1
     9d2:	90 93 6f 02 	sts	0x026F, r25	; 0x80026f <digit_position+0x1>
     9d6:	80 93 6e 02 	sts	0x026E, r24	; 0x80026e <digit_position>
     9da:	2a 96       	adiw	r28, 0x0a	; 10
     9dc:	0f b6       	in	r0, 0x3f	; 63
     9de:	f8 94       	cli
     9e0:	de bf       	out	0x3e, r29	; 62
     9e2:	0f be       	out	0x3f, r0	; 63
     9e4:	cd bf       	out	0x3d, r28	; 61
     9e6:	df 91       	pop	r29
     9e8:	cf 91       	pop	r28
     9ea:	08 95       	ret

000009ec <display_stop>:
     9ec:	80 91 6e 02 	lds	r24, 0x026E	; 0x80026e <digit_position>
     9f0:	90 91 6f 02 	lds	r25, 0x026F	; 0x80026f <digit_position+0x1>
     9f4:	81 30       	cpi	r24, 0x01	; 1
     9f6:	91 05       	cpc	r25, r1
     9f8:	79 f0       	breq	.+30     	; 0xa18 <display_stop+0x2c>
     9fa:	1c f4       	brge	.+6      	; 0xa02 <display_stop+0x16>
     9fc:	89 2b       	or	r24, r25
     9fe:	39 f0       	breq	.+14     	; 0xa0e <display_stop+0x22>
     a00:	19 c0       	rjmp	.+50     	; 0xa34 <display_stop+0x48>
     a02:	82 30       	cpi	r24, 0x02	; 2
     a04:	91 05       	cpc	r25, r1
     a06:	69 f0       	breq	.+26     	; 0xa22 <display_stop+0x36>
     a08:	03 97       	sbiw	r24, 0x03	; 3
     a0a:	81 f0       	breq	.+32     	; 0xa2c <display_stop+0x40>
     a0c:	13 c0       	rjmp	.+38     	; 0xa34 <display_stop+0x48>
     a0e:	82 e0       	ldi	r24, 0x02	; 2
     a10:	88 bb       	out	0x18, r24	; 24
     a12:	80 ec       	ldi	r24, 0xC0	; 192
     a14:	85 bb       	out	0x15, r24	; 21
     a16:	0e c0       	rjmp	.+28     	; 0xa34 <display_stop+0x48>
     a18:	84 e0       	ldi	r24, 0x04	; 4
     a1a:	88 bb       	out	0x18, r24	; 24
     a1c:	80 ec       	ldi	r24, 0xC0	; 192
     a1e:	85 bb       	out	0x15, r24	; 21
     a20:	09 c0       	rjmp	.+18     	; 0xa34 <display_stop+0x48>
     a22:	88 e0       	ldi	r24, 0x08	; 8
     a24:	88 bb       	out	0x18, r24	; 24
     a26:	80 ec       	ldi	r24, 0xC0	; 192
     a28:	85 bb       	out	0x15, r24	; 21
     a2a:	04 c0       	rjmp	.+8      	; 0xa34 <display_stop+0x48>
     a2c:	80 e1       	ldi	r24, 0x10	; 16
     a2e:	88 bb       	out	0x18, r24	; 24
     a30:	80 ec       	ldi	r24, 0xC0	; 192
     a32:	85 bb       	out	0x15, r24	; 21
     a34:	80 91 6e 02 	lds	r24, 0x026E	; 0x80026e <digit_position>
     a38:	90 91 6f 02 	lds	r25, 0x026F	; 0x80026f <digit_position+0x1>
     a3c:	01 96       	adiw	r24, 0x01	; 1
     a3e:	83 70       	andi	r24, 0x03	; 3
     a40:	90 78       	andi	r25, 0x80	; 128
     a42:	99 23       	and	r25, r25
     a44:	24 f4       	brge	.+8      	; 0xa4e <display_stop+0x62>
     a46:	01 97       	sbiw	r24, 0x01	; 1
     a48:	8c 6f       	ori	r24, 0xFC	; 252
     a4a:	9f 6f       	ori	r25, 0xFF	; 255
     a4c:	01 96       	adiw	r24, 0x01	; 1
     a4e:	90 93 6f 02 	sts	0x026F, r25	; 0x80026f <digit_position+0x1>
     a52:	80 93 6e 02 	sts	0x026E, r24	; 0x80026e <digit_position>
     a56:	08 95       	ret

00000a58 <display_complete>:
     a58:	80 91 6e 02 	lds	r24, 0x026E	; 0x80026e <digit_position>
     a5c:	90 91 6f 02 	lds	r25, 0x026F	; 0x80026f <digit_position+0x1>
     a60:	81 30       	cpi	r24, 0x01	; 1
     a62:	91 05       	cpc	r25, r1
     a64:	79 f0       	breq	.+30     	; 0xa84 <display_complete+0x2c>
     a66:	1c f4       	brge	.+6      	; 0xa6e <display_complete+0x16>
     a68:	89 2b       	or	r24, r25
     a6a:	39 f0       	breq	.+14     	; 0xa7a <display_complete+0x22>
     a6c:	19 c0       	rjmp	.+50     	; 0xaa0 <display_complete+0x48>
     a6e:	82 30       	cpi	r24, 0x02	; 2
     a70:	91 05       	cpc	r25, r1
     a72:	69 f0       	breq	.+26     	; 0xa8e <display_complete+0x36>
     a74:	03 97       	sbiw	r24, 0x03	; 3
     a76:	81 f0       	breq	.+32     	; 0xa98 <display_complete+0x40>
     a78:	13 c0       	rjmp	.+38     	; 0xaa0 <display_complete+0x48>
     a7a:	82 e0       	ldi	r24, 0x02	; 2
     a7c:	88 bb       	out	0x18, r24	; 24
     a7e:	80 ef       	ldi	r24, 0xF0	; 240
     a80:	85 bb       	out	0x15, r24	; 21
     a82:	0e c0       	rjmp	.+28     	; 0xaa0 <display_complete+0x48>
     a84:	84 e0       	ldi	r24, 0x04	; 4
     a86:	88 bb       	out	0x18, r24	; 24
     a88:	86 ef       	ldi	r24, 0xF6	; 246
     a8a:	85 bb       	out	0x15, r24	; 21
     a8c:	09 c0       	rjmp	.+18     	; 0xaa0 <display_complete+0x48>
     a8e:	88 e0       	ldi	r24, 0x08	; 8
     a90:	88 bb       	out	0x18, r24	; 24
     a92:	86 ef       	ldi	r24, 0xF6	; 246
     a94:	85 bb       	out	0x15, r24	; 21
     a96:	04 c0       	rjmp	.+8      	; 0xaa0 <display_complete+0x48>
     a98:	80 e1       	ldi	r24, 0x10	; 16
     a9a:	88 bb       	out	0x18, r24	; 24
     a9c:	86 ec       	ldi	r24, 0xC6	; 198
     a9e:	85 bb       	out	0x15, r24	; 21
     aa0:	80 91 6e 02 	lds	r24, 0x026E	; 0x80026e <digit_position>
     aa4:	90 91 6f 02 	lds	r25, 0x026F	; 0x80026f <digit_position+0x1>
     aa8:	01 96       	adiw	r24, 0x01	; 1
     aaa:	83 70       	andi	r24, 0x03	; 3
     aac:	90 78       	andi	r25, 0x80	; 128
     aae:	99 23       	and	r25, r25
     ab0:	24 f4       	brge	.+8      	; 0xaba <display_complete+0x62>
     ab2:	01 97       	sbiw	r24, 0x01	; 1
     ab4:	8c 6f       	ori	r24, 0xFC	; 252
     ab6:	9f 6f       	ori	r25, 0xFF	; 255
     ab8:	01 96       	adiw	r24, 0x01	; 1
     aba:	90 93 6f 02 	sts	0x026F, r25	; 0x80026f <digit_position+0x1>
     abe:	80 93 6e 02 	sts	0x026E, r24	; 0x80026e <digit_position>
     ac2:	08 95       	ret

00000ac4 <display_active_fnd>:
     ac4:	80 91 7e 02 	lds	r24, 0x027E	; 0x80027e <set_reset>
     ac8:	90 91 7f 02 	lds	r25, 0x027F	; 0x80027f <set_reset+0x1>
     acc:	82 30       	cpi	r24, 0x02	; 2
     ace:	91 05       	cpc	r25, r1
     ad0:	09 f0       	breq	.+2      	; 0xad4 <display_active_fnd+0x10>
     ad2:	68 c0       	rjmp	.+208    	; 0xba4 <display_active_fnd+0xe0>
     ad4:	20 91 78 02 	lds	r18, 0x0278	; 0x800278 <run_stop>
     ad8:	30 91 79 02 	lds	r19, 0x0279	; 0x800279 <run_stop+0x1>
     adc:	21 30       	cpi	r18, 0x01	; 1
     ade:	31 05       	cpc	r19, r1
     ae0:	09 f0       	breq	.+2      	; 0xae4 <display_active_fnd+0x20>
     ae2:	60 c0       	rjmp	.+192    	; 0xba4 <display_active_fnd+0xe0>
     ae4:	20 91 04 01 	lds	r18, 0x0104	; 0x800104 <water_time>
     ae8:	30 91 05 01 	lds	r19, 0x0105	; 0x800105 <water_time+0x1>
     aec:	12 16       	cp	r1, r18
     aee:	13 06       	cpc	r1, r19
     af0:	0c f0       	brlt	.+2      	; 0xaf4 <display_active_fnd+0x30>
     af2:	3e c0       	rjmp	.+124    	; 0xb70 <display_active_fnd+0xac>
     af4:	40 91 74 02 	lds	r20, 0x0274	; 0x800274 <rinse_time>
     af8:	50 91 75 02 	lds	r21, 0x0275	; 0x800275 <rinse_time+0x1>
     afc:	14 16       	cp	r1, r20
     afe:	15 06       	cpc	r1, r21
     b00:	bc f5       	brge	.+110    	; 0xb70 <display_active_fnd+0xac>
     b02:	60 91 8a 02 	lds	r22, 0x028A	; 0x80028a <machine_s_timer>
     b06:	70 91 8b 02 	lds	r23, 0x028B	; 0x80028b <machine_s_timer+0x1>
     b0a:	77 23       	and	r23, r23
     b0c:	d4 f0       	brlt	.+52     	; 0xb42 <display_active_fnd+0x7e>
     b0e:	80 91 76 02 	lds	r24, 0x0276	; 0x800276 <wash_time>
     b12:	90 91 77 02 	lds	r25, 0x0277	; 0x800277 <wash_time+0x1>
     b16:	f9 01       	movw	r30, r18
     b18:	ee 0f       	add	r30, r30
     b1a:	ff 1f       	adc	r31, r31
     b1c:	ee 0f       	add	r30, r30
     b1e:	ff 1f       	adc	r31, r31
     b20:	8e 0f       	add	r24, r30
     b22:	9f 1f       	adc	r25, r31
     b24:	84 0f       	add	r24, r20
     b26:	95 1f       	adc	r25, r21
     b28:	e0 91 02 01 	lds	r30, 0x0102	; 0x800102 <spindry_time>
     b2c:	f0 91 03 01 	lds	r31, 0x0103	; 0x800103 <spindry_time+0x1>
     b30:	8e 0f       	add	r24, r30
     b32:	9f 1f       	adc	r25, r31
     b34:	68 17       	cp	r22, r24
     b36:	79 07       	cpc	r23, r25
     b38:	24 f4       	brge	.+8      	; 0xb42 <display_active_fnd+0x7e>
     b3a:	86 1b       	sub	r24, r22
     b3c:	97 0b       	sbc	r25, r23
     b3e:	c2 ce       	rjmp	.-636    	; 0x8c4 <display_fnd>
     b40:	08 95       	ret
     b42:	22 0f       	add	r18, r18
     b44:	33 1f       	adc	r19, r19
     b46:	22 0f       	add	r18, r18
     b48:	33 1f       	adc	r19, r19
     b4a:	80 91 76 02 	lds	r24, 0x0276	; 0x800276 <wash_time>
     b4e:	90 91 77 02 	lds	r25, 0x0277	; 0x800277 <wash_time+0x1>
     b52:	28 0f       	add	r18, r24
     b54:	39 1f       	adc	r19, r25
     b56:	24 0f       	add	r18, r20
     b58:	35 1f       	adc	r19, r21
     b5a:	80 91 02 01 	lds	r24, 0x0102	; 0x800102 <spindry_time>
     b5e:	90 91 03 01 	lds	r25, 0x0103	; 0x800103 <spindry_time+0x1>
     b62:	28 0f       	add	r18, r24
     b64:	39 1f       	adc	r19, r25
     b66:	62 17       	cp	r22, r18
     b68:	73 07       	cpc	r23, r19
     b6a:	2c f1       	brlt	.+74     	; 0xbb6 <display_active_fnd+0xf2>
     b6c:	75 cf       	rjmp	.-278    	; 0xa58 <display_complete>
     b6e:	08 95       	ret
     b70:	20 91 8a 02 	lds	r18, 0x028A	; 0x80028a <machine_s_timer>
     b74:	30 91 8b 02 	lds	r19, 0x028B	; 0x80028b <machine_s_timer+0x1>
     b78:	33 23       	and	r19, r19
     b7a:	5c f0       	brlt	.+22     	; 0xb92 <display_active_fnd+0xce>
     b7c:	80 91 02 01 	lds	r24, 0x0102	; 0x800102 <spindry_time>
     b80:	90 91 03 01 	lds	r25, 0x0103	; 0x800103 <spindry_time+0x1>
     b84:	28 17       	cp	r18, r24
     b86:	39 07       	cpc	r19, r25
     b88:	24 f4       	brge	.+8      	; 0xb92 <display_active_fnd+0xce>
     b8a:	82 1b       	sub	r24, r18
     b8c:	93 0b       	sbc	r25, r19
     b8e:	9a ce       	rjmp	.-716    	; 0x8c4 <display_fnd>
     b90:	08 95       	ret
     b92:	80 91 02 01 	lds	r24, 0x0102	; 0x800102 <spindry_time>
     b96:	90 91 03 01 	lds	r25, 0x0103	; 0x800103 <spindry_time+0x1>
     b9a:	28 17       	cp	r18, r24
     b9c:	39 07       	cpc	r19, r25
     b9e:	5c f0       	brlt	.+22     	; 0xbb6 <display_active_fnd+0xf2>
     ba0:	5b cf       	rjmp	.-330    	; 0xa58 <display_complete>
     ba2:	08 95       	ret
     ba4:	02 97       	sbiw	r24, 0x02	; 2
     ba6:	39 f4       	brne	.+14     	; 0xbb6 <display_active_fnd+0xf2>
     ba8:	80 91 78 02 	lds	r24, 0x0278	; 0x800278 <run_stop>
     bac:	90 91 79 02 	lds	r25, 0x0279	; 0x800279 <run_stop+0x1>
     bb0:	02 97       	sbiw	r24, 0x02	; 2
     bb2:	09 f4       	brne	.+2      	; 0xbb6 <display_active_fnd+0xf2>
     bb4:	1b cf       	rjmp	.-458    	; 0x9ec <display_stop>
     bb6:	08 95       	ret

00000bb8 <I2C_init>:
     bb8:	80 93 70 00 	sts	0x0070, r24	; 0x800070 <__TEXT_REGION_LENGTH__+0x7e0070>
     bbc:	08 95       	ret

00000bbe <I2C_start>:
     bbe:	84 ea       	ldi	r24, 0xA4	; 164
     bc0:	80 93 74 00 	sts	0x0074, r24	; 0x800074 <__TEXT_REGION_LENGTH__+0x7e0074>
     bc4:	80 91 74 00 	lds	r24, 0x0074	; 0x800074 <__TEXT_REGION_LENGTH__+0x7e0074>
     bc8:	88 23       	and	r24, r24
     bca:	e4 f7       	brge	.-8      	; 0xbc4 <I2C_start+0x6>
     bcc:	08 95       	ret

00000bce <I2C_transmit>:
     bce:	80 93 73 00 	sts	0x0073, r24	; 0x800073 <__TEXT_REGION_LENGTH__+0x7e0073>
     bd2:	84 e8       	ldi	r24, 0x84	; 132
     bd4:	80 93 74 00 	sts	0x0074, r24	; 0x800074 <__TEXT_REGION_LENGTH__+0x7e0074>
     bd8:	80 91 74 00 	lds	r24, 0x0074	; 0x800074 <__TEXT_REGION_LENGTH__+0x7e0074>
     bdc:	88 23       	and	r24, r24
     bde:	e4 f7       	brge	.-8      	; 0xbd8 <I2C_transmit+0xa>
     be0:	08 95       	ret

00000be2 <I2C_stop>:
     be2:	84 e9       	ldi	r24, 0x94	; 148
     be4:	80 93 74 00 	sts	0x0074, r24	; 0x800074 <__TEXT_REGION_LENGTH__+0x7e0074>
     be8:	08 95       	ret

00000bea <I2C_write_byte>:
     bea:	cf 93       	push	r28
     bec:	df 93       	push	r29
     bee:	d8 2f       	mov	r29, r24
     bf0:	c6 2f       	mov	r28, r22
     bf2:	e5 df       	rcall	.-54     	; 0xbbe <I2C_start>
     bf4:	8d 2f       	mov	r24, r29
     bf6:	eb df       	rcall	.-42     	; 0xbce <I2C_transmit>
     bf8:	8c 2f       	mov	r24, r28
     bfa:	e9 df       	rcall	.-46     	; 0xbce <I2C_transmit>
     bfc:	f2 df       	rcall	.-28     	; 0xbe2 <I2C_stop>
     bfe:	df 91       	pop	r29
     c00:	cf 91       	pop	r28
     c02:	08 95       	ret

00000c04 <I2C_LCD_write_data>:
     c04:	1f 93       	push	r17
     c06:	cf 93       	push	r28
     c08:	df 93       	push	r29
     c0a:	00 d0       	rcall	.+0      	; 0xc0c <I2C_LCD_write_data+0x8>
     c0c:	00 d0       	rcall	.+0      	; 0xc0e <I2C_LCD_write_data+0xa>
     c0e:	cd b7       	in	r28, 0x3d	; 61
     c10:	de b7       	in	r29, 0x3e	; 62
     c12:	28 2f       	mov	r18, r24
     c14:	20 7f       	andi	r18, 0xF0	; 240
     c16:	30 e1       	ldi	r19, 0x10	; 16
     c18:	83 9f       	mul	r24, r19
     c1a:	c0 01       	movw	r24, r0
     c1c:	11 24       	eor	r1, r1
     c1e:	92 2f       	mov	r25, r18
     c20:	9d 60       	ori	r25, 0x0D	; 13
     c22:	99 83       	std	Y+1, r25	; 0x01
     c24:	29 60       	ori	r18, 0x09	; 9
     c26:	2a 83       	std	Y+2, r18	; 0x02
     c28:	98 2f       	mov	r25, r24
     c2a:	9d 60       	ori	r25, 0x0D	; 13
     c2c:	9b 83       	std	Y+3, r25	; 0x03
     c2e:	89 60       	ori	r24, 0x09	; 9
     c30:	8c 83       	std	Y+4, r24	; 0x04
     c32:	10 e0       	ldi	r17, 0x00	; 0
     c34:	0a c0       	rjmp	.+20     	; 0xc4a <I2C_LCD_write_data+0x46>
     c36:	e1 e0       	ldi	r30, 0x01	; 1
     c38:	f0 e0       	ldi	r31, 0x00	; 0
     c3a:	ec 0f       	add	r30, r28
     c3c:	fd 1f       	adc	r31, r29
     c3e:	e1 0f       	add	r30, r17
     c40:	f1 1d       	adc	r31, r1
     c42:	60 81       	ld	r22, Z
     c44:	8e e4       	ldi	r24, 0x4E	; 78
     c46:	d1 df       	rcall	.-94     	; 0xbea <I2C_write_byte>
     c48:	1f 5f       	subi	r17, 0xFF	; 255
     c4a:	14 30       	cpi	r17, 0x04	; 4
     c4c:	a0 f3       	brcs	.-24     	; 0xc36 <I2C_LCD_write_data+0x32>
     c4e:	0f 90       	pop	r0
     c50:	0f 90       	pop	r0
     c52:	0f 90       	pop	r0
     c54:	0f 90       	pop	r0
     c56:	df 91       	pop	r29
     c58:	cf 91       	pop	r28
     c5a:	1f 91       	pop	r17
     c5c:	08 95       	ret

00000c5e <I2C_LCD_write_command>:
     c5e:	1f 93       	push	r17
     c60:	cf 93       	push	r28
     c62:	df 93       	push	r29
     c64:	00 d0       	rcall	.+0      	; 0xc66 <I2C_LCD_write_command+0x8>
     c66:	00 d0       	rcall	.+0      	; 0xc68 <I2C_LCD_write_command+0xa>
     c68:	cd b7       	in	r28, 0x3d	; 61
     c6a:	de b7       	in	r29, 0x3e	; 62
     c6c:	28 2f       	mov	r18, r24
     c6e:	20 7f       	andi	r18, 0xF0	; 240
     c70:	30 e1       	ldi	r19, 0x10	; 16
     c72:	83 9f       	mul	r24, r19
     c74:	c0 01       	movw	r24, r0
     c76:	11 24       	eor	r1, r1
     c78:	92 2f       	mov	r25, r18
     c7a:	9c 60       	ori	r25, 0x0C	; 12
     c7c:	99 83       	std	Y+1, r25	; 0x01
     c7e:	28 60       	ori	r18, 0x08	; 8
     c80:	2a 83       	std	Y+2, r18	; 0x02
     c82:	98 2f       	mov	r25, r24
     c84:	9c 60       	ori	r25, 0x0C	; 12
     c86:	9b 83       	std	Y+3, r25	; 0x03
     c88:	88 60       	ori	r24, 0x08	; 8
     c8a:	8c 83       	std	Y+4, r24	; 0x04
     c8c:	10 e0       	ldi	r17, 0x00	; 0
     c8e:	0a c0       	rjmp	.+20     	; 0xca4 <I2C_LCD_write_command+0x46>
     c90:	e1 e0       	ldi	r30, 0x01	; 1
     c92:	f0 e0       	ldi	r31, 0x00	; 0
     c94:	ec 0f       	add	r30, r28
     c96:	fd 1f       	adc	r31, r29
     c98:	e1 0f       	add	r30, r17
     c9a:	f1 1d       	adc	r31, r1
     c9c:	60 81       	ld	r22, Z
     c9e:	8e e4       	ldi	r24, 0x4E	; 78
     ca0:	a4 df       	rcall	.-184    	; 0xbea <I2C_write_byte>
     ca2:	1f 5f       	subi	r17, 0xFF	; 255
     ca4:	14 30       	cpi	r17, 0x04	; 4
     ca6:	a0 f3       	brcs	.-24     	; 0xc90 <I2C_LCD_write_command+0x32>
     ca8:	0f 90       	pop	r0
     caa:	0f 90       	pop	r0
     cac:	0f 90       	pop	r0
     cae:	0f 90       	pop	r0
     cb0:	df 91       	pop	r29
     cb2:	cf 91       	pop	r28
     cb4:	1f 91       	pop	r17
     cb6:	08 95       	ret

00000cb8 <I2C_LCD_init>:
     cb8:	80 e1       	ldi	r24, 0x10	; 16
     cba:	97 e2       	ldi	r25, 0x27	; 39
     cbc:	7d df       	rcall	.-262    	; 0xbb8 <I2C_init>
     cbe:	2f ef       	ldi	r18, 0xFF	; 255
     cc0:	80 e7       	ldi	r24, 0x70	; 112
     cc2:	92 e0       	ldi	r25, 0x02	; 2
     cc4:	21 50       	subi	r18, 0x01	; 1
     cc6:	80 40       	sbci	r24, 0x00	; 0
     cc8:	90 40       	sbci	r25, 0x00	; 0
     cca:	e1 f7       	brne	.-8      	; 0xcc4 <I2C_LCD_init+0xc>
     ccc:	00 c0       	rjmp	.+0      	; 0xcce <I2C_LCD_init+0x16>
     cce:	00 00       	nop
     cd0:	83 e3       	ldi	r24, 0x33	; 51
     cd2:	c5 df       	rcall	.-118    	; 0xc5e <I2C_LCD_write_command>
     cd4:	82 e3       	ldi	r24, 0x32	; 50
     cd6:	c3 df       	rcall	.-122    	; 0xc5e <I2C_LCD_write_command>
     cd8:	88 e2       	ldi	r24, 0x28	; 40
     cda:	c1 df       	rcall	.-126    	; 0xc5e <I2C_LCD_write_command>
     cdc:	8c e0       	ldi	r24, 0x0C	; 12
     cde:	bf df       	rcall	.-130    	; 0xc5e <I2C_LCD_write_command>
     ce0:	86 e0       	ldi	r24, 0x06	; 6
     ce2:	bd df       	rcall	.-134    	; 0xc5e <I2C_LCD_write_command>
     ce4:	81 e0       	ldi	r24, 0x01	; 1
     ce6:	bb df       	rcall	.-138    	; 0xc5e <I2C_LCD_write_command>
     ce8:	8f e3       	ldi	r24, 0x3F	; 63
     cea:	9c e9       	ldi	r25, 0x9C	; 156
     cec:	01 97       	sbiw	r24, 0x01	; 1
     cee:	f1 f7       	brne	.-4      	; 0xcec <I2C_LCD_init+0x34>
     cf0:	00 c0       	rjmp	.+0      	; 0xcf2 <I2C_LCD_init+0x3a>
     cf2:	00 00       	nop
     cf4:	08 95       	ret

00000cf6 <I2C_LCD_write_string>:
     cf6:	0f 93       	push	r16
     cf8:	1f 93       	push	r17
     cfa:	cf 93       	push	r28
     cfc:	8c 01       	movw	r16, r24
     cfe:	c0 e0       	ldi	r28, 0x00	; 0
     d00:	02 c0       	rjmp	.+4      	; 0xd06 <I2C_LCD_write_string+0x10>
     d02:	80 df       	rcall	.-256    	; 0xc04 <I2C_LCD_write_data>
     d04:	cf 5f       	subi	r28, 0xFF	; 255
     d06:	f8 01       	movw	r30, r16
     d08:	ec 0f       	add	r30, r28
     d0a:	f1 1d       	adc	r31, r1
     d0c:	80 81       	ld	r24, Z
     d0e:	81 11       	cpse	r24, r1
     d10:	f8 cf       	rjmp	.-16     	; 0xd02 <I2C_LCD_write_string+0xc>
     d12:	cf 91       	pop	r28
     d14:	1f 91       	pop	r17
     d16:	0f 91       	pop	r16
     d18:	08 95       	ret

00000d1a <I2C_LCD_goto_XY>:
     d1a:	6f 70       	andi	r22, 0x0F	; 15
     d1c:	81 70       	andi	r24, 0x01	; 1
     d1e:	90 e4       	ldi	r25, 0x40	; 64
     d20:	89 9f       	mul	r24, r25
     d22:	60 0d       	add	r22, r0
     d24:	11 24       	eor	r1, r1
     d26:	86 2f       	mov	r24, r22
     d28:	80 58       	subi	r24, 0x80	; 128
     d2a:	99 cf       	rjmp	.-206    	; 0xc5e <I2C_LCD_write_command>
     d2c:	08 95       	ret

00000d2e <I2C_LCD_write_string_XY>:
     d2e:	cf 93       	push	r28
     d30:	df 93       	push	r29
     d32:	ea 01       	movw	r28, r20
     d34:	f2 df       	rcall	.-28     	; 0xd1a <I2C_LCD_goto_XY>
     d36:	ce 01       	movw	r24, r28
     d38:	de df       	rcall	.-68     	; 0xcf6 <I2C_LCD_write_string>
     d3a:	df 91       	pop	r29
     d3c:	cf 91       	pop	r28
     d3e:	08 95       	ret

00000d40 <LCD_Display>:
     d40:	cf 93       	push	r28
     d42:	df 93       	push	r29
     d44:	80 91 7e 02 	lds	r24, 0x027E	; 0x80027e <set_reset>
     d48:	90 91 7f 02 	lds	r25, 0x027F	; 0x80027f <set_reset+0x1>
     d4c:	00 97       	sbiw	r24, 0x00	; 0
     d4e:	69 f5       	brne	.+90     	; 0xdaa <LCD_Display+0x6a>
     d50:	80 91 8e 02 	lds	r24, 0x028E	; 0x80028e <lcd_display_clock>
     d54:	90 91 8f 02 	lds	r25, 0x028F	; 0x80028f <lcd_display_clock+0x1>
     d58:	85 36       	cpi	r24, 0x65	; 101
     d5a:	91 05       	cpc	r25, r1
     d5c:	0c f4       	brge	.+2      	; 0xd60 <LCD_Display+0x20>
     d5e:	8f c4       	rjmp	.+2334   	; 0x167e <__stack+0x57f>
     d60:	10 92 8f 02 	sts	0x028F, r1	; 0x80028f <lcd_display_clock+0x1>
     d64:	10 92 8e 02 	sts	0x028E, r1	; 0x80028e <lcd_display_clock>
     d68:	81 e1       	ldi	r24, 0x11	; 17
     d6a:	e2 e1       	ldi	r30, 0x12	; 18
     d6c:	f1 e0       	ldi	r31, 0x01	; 1
     d6e:	a0 e9       	ldi	r26, 0x90	; 144
     d70:	b2 e0       	ldi	r27, 0x02	; 2
     d72:	01 90       	ld	r0, Z+
     d74:	0d 92       	st	X+, r0
     d76:	8a 95       	dec	r24
     d78:	e1 f7       	brne	.-8      	; 0xd72 <LCD_Display+0x32>
     d7a:	40 e9       	ldi	r20, 0x90	; 144
     d7c:	52 e0       	ldi	r21, 0x02	; 2
     d7e:	60 e0       	ldi	r22, 0x00	; 0
     d80:	70 e0       	ldi	r23, 0x00	; 0
     d82:	80 e0       	ldi	r24, 0x00	; 0
     d84:	90 e0       	ldi	r25, 0x00	; 0
     d86:	d3 df       	rcall	.-90     	; 0xd2e <I2C_LCD_write_string_XY>
     d88:	81 e1       	ldi	r24, 0x11	; 17
     d8a:	e3 e2       	ldi	r30, 0x23	; 35
     d8c:	f1 e0       	ldi	r31, 0x01	; 1
     d8e:	a0 e9       	ldi	r26, 0x90	; 144
     d90:	b2 e0       	ldi	r27, 0x02	; 2
     d92:	01 90       	ld	r0, Z+
     d94:	0d 92       	st	X+, r0
     d96:	8a 95       	dec	r24
     d98:	e1 f7       	brne	.-8      	; 0xd92 <LCD_Display+0x52>
     d9a:	40 e9       	ldi	r20, 0x90	; 144
     d9c:	52 e0       	ldi	r21, 0x02	; 2
     d9e:	60 e0       	ldi	r22, 0x00	; 0
     da0:	70 e0       	ldi	r23, 0x00	; 0
     da2:	81 e0       	ldi	r24, 0x01	; 1
     da4:	90 e0       	ldi	r25, 0x00	; 0
     da6:	c3 df       	rcall	.-122    	; 0xd2e <I2C_LCD_write_string_XY>
     da8:	6a c4       	rjmp	.+2260   	; 0x167e <__stack+0x57f>
     daa:	81 30       	cpi	r24, 0x01	; 1
     dac:	91 05       	cpc	r25, r1
     dae:	99 f5       	brne	.+102    	; 0xe16 <LCD_Display+0xd6>
     db0:	20 91 7c 02 	lds	r18, 0x027C	; 0x80027c <set_mode>
     db4:	30 91 7d 02 	lds	r19, 0x027D	; 0x80027d <set_mode+0x1>
     db8:	23 2b       	or	r18, r19
     dba:	69 f5       	brne	.+90     	; 0xe16 <LCD_Display+0xd6>
     dbc:	80 91 8e 02 	lds	r24, 0x028E	; 0x80028e <lcd_display_clock>
     dc0:	90 91 8f 02 	lds	r25, 0x028F	; 0x80028f <lcd_display_clock+0x1>
     dc4:	85 36       	cpi	r24, 0x65	; 101
     dc6:	91 05       	cpc	r25, r1
     dc8:	0c f4       	brge	.+2      	; 0xdcc <LCD_Display+0x8c>
     dca:	59 c4       	rjmp	.+2226   	; 0x167e <__stack+0x57f>
     dcc:	10 92 8f 02 	sts	0x028F, r1	; 0x80028f <lcd_display_clock+0x1>
     dd0:	10 92 8e 02 	sts	0x028E, r1	; 0x80028e <lcd_display_clock>
     dd4:	81 e1       	ldi	r24, 0x11	; 17
     dd6:	e2 e1       	ldi	r30, 0x12	; 18
     dd8:	f1 e0       	ldi	r31, 0x01	; 1
     dda:	a0 e9       	ldi	r26, 0x90	; 144
     ddc:	b2 e0       	ldi	r27, 0x02	; 2
     dde:	01 90       	ld	r0, Z+
     de0:	0d 92       	st	X+, r0
     de2:	8a 95       	dec	r24
     de4:	e1 f7       	brne	.-8      	; 0xdde <LCD_Display+0x9e>
     de6:	40 e9       	ldi	r20, 0x90	; 144
     de8:	52 e0       	ldi	r21, 0x02	; 2
     dea:	60 e0       	ldi	r22, 0x00	; 0
     dec:	70 e0       	ldi	r23, 0x00	; 0
     dee:	80 e0       	ldi	r24, 0x00	; 0
     df0:	90 e0       	ldi	r25, 0x00	; 0
     df2:	9d df       	rcall	.-198    	; 0xd2e <I2C_LCD_write_string_XY>
     df4:	81 e1       	ldi	r24, 0x11	; 17
     df6:	e4 e3       	ldi	r30, 0x34	; 52
     df8:	f1 e0       	ldi	r31, 0x01	; 1
     dfa:	a0 e9       	ldi	r26, 0x90	; 144
     dfc:	b2 e0       	ldi	r27, 0x02	; 2
     dfe:	01 90       	ld	r0, Z+
     e00:	0d 92       	st	X+, r0
     e02:	8a 95       	dec	r24
     e04:	e1 f7       	brne	.-8      	; 0xdfe <LCD_Display+0xbe>
     e06:	40 e9       	ldi	r20, 0x90	; 144
     e08:	52 e0       	ldi	r21, 0x02	; 2
     e0a:	60 e0       	ldi	r22, 0x00	; 0
     e0c:	70 e0       	ldi	r23, 0x00	; 0
     e0e:	81 e0       	ldi	r24, 0x01	; 1
     e10:	90 e0       	ldi	r25, 0x00	; 0
     e12:	8d df       	rcall	.-230    	; 0xd2e <I2C_LCD_write_string_XY>
     e14:	34 c4       	rjmp	.+2152   	; 0x167e <__stack+0x57f>
     e16:	81 30       	cpi	r24, 0x01	; 1
     e18:	91 05       	cpc	r25, r1
     e1a:	09 f0       	breq	.+2      	; 0xe1e <LCD_Display+0xde>
     e1c:	45 c0       	rjmp	.+138    	; 0xea8 <LCD_Display+0x168>
     e1e:	20 91 7c 02 	lds	r18, 0x027C	; 0x80027c <set_mode>
     e22:	30 91 7d 02 	lds	r19, 0x027D	; 0x80027d <set_mode+0x1>
     e26:	21 30       	cpi	r18, 0x01	; 1
     e28:	31 05       	cpc	r19, r1
     e2a:	09 f0       	breq	.+2      	; 0xe2e <LCD_Display+0xee>
     e2c:	3d c0       	rjmp	.+122    	; 0xea8 <LCD_Display+0x168>
     e2e:	20 91 7a 02 	lds	r18, 0x027A	; 0x80027a <manual_mode>
     e32:	30 91 7b 02 	lds	r19, 0x027B	; 0x80027b <manual_mode+0x1>
     e36:	23 2b       	or	r18, r19
     e38:	b9 f5       	brne	.+110    	; 0xea8 <LCD_Display+0x168>
     e3a:	80 91 8e 02 	lds	r24, 0x028E	; 0x80028e <lcd_display_clock>
     e3e:	90 91 8f 02 	lds	r25, 0x028F	; 0x80028f <lcd_display_clock+0x1>
     e42:	85 36       	cpi	r24, 0x65	; 101
     e44:	91 05       	cpc	r25, r1
     e46:	0c f4       	brge	.+2      	; 0xe4a <LCD_Display+0x10a>
     e48:	1a c4       	rjmp	.+2100   	; 0x167e <__stack+0x57f>
     e4a:	10 92 8f 02 	sts	0x028F, r1	; 0x80028f <lcd_display_clock+0x1>
     e4e:	10 92 8e 02 	sts	0x028E, r1	; 0x80028e <lcd_display_clock>
     e52:	c0 e9       	ldi	r28, 0x90	; 144
     e54:	d2 e0       	ldi	r29, 0x02	; 2
     e56:	81 e1       	ldi	r24, 0x11	; 17
     e58:	e5 e4       	ldi	r30, 0x45	; 69
     e5a:	f1 e0       	ldi	r31, 0x01	; 1
     e5c:	de 01       	movw	r26, r28
     e5e:	01 90       	ld	r0, Z+
     e60:	0d 92       	st	X+, r0
     e62:	8a 95       	dec	r24
     e64:	e1 f7       	brne	.-8      	; 0xe5e <LCD_Display+0x11e>
     e66:	ae 01       	movw	r20, r28
     e68:	60 e0       	ldi	r22, 0x00	; 0
     e6a:	70 e0       	ldi	r23, 0x00	; 0
     e6c:	80 e0       	ldi	r24, 0x00	; 0
     e6e:	90 e0       	ldi	r25, 0x00	; 0
     e70:	5e df       	rcall	.-324    	; 0xd2e <I2C_LCD_write_string_XY>
     e72:	80 91 77 02 	lds	r24, 0x0277	; 0x800277 <wash_time+0x1>
     e76:	8f 93       	push	r24
     e78:	80 91 76 02 	lds	r24, 0x0276	; 0x800276 <wash_time>
     e7c:	8f 93       	push	r24
     e7e:	86 e5       	ldi	r24, 0x56	; 86
     e80:	91 e0       	ldi	r25, 0x01	; 1
     e82:	9f 93       	push	r25
     e84:	8f 93       	push	r24
     e86:	df 93       	push	r29
     e88:	cf 93       	push	r28
     e8a:	0e 94 5d 0f 	call	0x1eba	; 0x1eba <sprintf>
     e8e:	ae 01       	movw	r20, r28
     e90:	60 e0       	ldi	r22, 0x00	; 0
     e92:	70 e0       	ldi	r23, 0x00	; 0
     e94:	81 e0       	ldi	r24, 0x01	; 1
     e96:	90 e0       	ldi	r25, 0x00	; 0
     e98:	4a df       	rcall	.-364    	; 0xd2e <I2C_LCD_write_string_XY>
     e9a:	0f 90       	pop	r0
     e9c:	0f 90       	pop	r0
     e9e:	0f 90       	pop	r0
     ea0:	0f 90       	pop	r0
     ea2:	0f 90       	pop	r0
     ea4:	0f 90       	pop	r0
     ea6:	eb c3       	rjmp	.+2006   	; 0x167e <__stack+0x57f>
     ea8:	81 30       	cpi	r24, 0x01	; 1
     eaa:	91 05       	cpc	r25, r1
     eac:	09 f0       	breq	.+2      	; 0xeb0 <LCD_Display+0x170>
     eae:	45 c0       	rjmp	.+138    	; 0xf3a <LCD_Display+0x1fa>
     eb0:	20 91 7c 02 	lds	r18, 0x027C	; 0x80027c <set_mode>
     eb4:	30 91 7d 02 	lds	r19, 0x027D	; 0x80027d <set_mode+0x1>
     eb8:	21 30       	cpi	r18, 0x01	; 1
     eba:	31 05       	cpc	r19, r1
     ebc:	09 f0       	breq	.+2      	; 0xec0 <LCD_Display+0x180>
     ebe:	3d c0       	rjmp	.+122    	; 0xf3a <LCD_Display+0x1fa>
     ec0:	20 91 7a 02 	lds	r18, 0x027A	; 0x80027a <manual_mode>
     ec4:	30 91 7b 02 	lds	r19, 0x027B	; 0x80027b <manual_mode+0x1>
     ec8:	21 30       	cpi	r18, 0x01	; 1
     eca:	31 05       	cpc	r19, r1
     ecc:	b1 f5       	brne	.+108    	; 0xf3a <LCD_Display+0x1fa>
     ece:	80 91 8e 02 	lds	r24, 0x028E	; 0x80028e <lcd_display_clock>
     ed2:	90 91 8f 02 	lds	r25, 0x028F	; 0x80028f <lcd_display_clock+0x1>
     ed6:	85 36       	cpi	r24, 0x65	; 101
     ed8:	91 05       	cpc	r25, r1
     eda:	0c f4       	brge	.+2      	; 0xede <LCD_Display+0x19e>
     edc:	d0 c3       	rjmp	.+1952   	; 0x167e <__stack+0x57f>
     ede:	10 92 8f 02 	sts	0x028F, r1	; 0x80028f <lcd_display_clock+0x1>
     ee2:	10 92 8e 02 	sts	0x028E, r1	; 0x80028e <lcd_display_clock>
     ee6:	c0 e9       	ldi	r28, 0x90	; 144
     ee8:	d2 e0       	ldi	r29, 0x02	; 2
     eea:	81 e1       	ldi	r24, 0x11	; 17
     eec:	e5 e4       	ldi	r30, 0x45	; 69
     eee:	f1 e0       	ldi	r31, 0x01	; 1
     ef0:	de 01       	movw	r26, r28
     ef2:	01 90       	ld	r0, Z+
     ef4:	0d 92       	st	X+, r0
     ef6:	8a 95       	dec	r24
     ef8:	e1 f7       	brne	.-8      	; 0xef2 <LCD_Display+0x1b2>
     efa:	ae 01       	movw	r20, r28
     efc:	60 e0       	ldi	r22, 0x00	; 0
     efe:	70 e0       	ldi	r23, 0x00	; 0
     f00:	80 e0       	ldi	r24, 0x00	; 0
     f02:	90 e0       	ldi	r25, 0x00	; 0
     f04:	14 df       	rcall	.-472    	; 0xd2e <I2C_LCD_write_string_XY>
     f06:	80 91 75 02 	lds	r24, 0x0275	; 0x800275 <rinse_time+0x1>
     f0a:	8f 93       	push	r24
     f0c:	80 91 74 02 	lds	r24, 0x0274	; 0x800274 <rinse_time>
     f10:	8f 93       	push	r24
     f12:	88 e6       	ldi	r24, 0x68	; 104
     f14:	91 e0       	ldi	r25, 0x01	; 1
     f16:	9f 93       	push	r25
     f18:	8f 93       	push	r24
     f1a:	df 93       	push	r29
     f1c:	cf 93       	push	r28
     f1e:	cd d7       	rcall	.+3994   	; 0x1eba <sprintf>
     f20:	ae 01       	movw	r20, r28
     f22:	60 e0       	ldi	r22, 0x00	; 0
     f24:	70 e0       	ldi	r23, 0x00	; 0
     f26:	81 e0       	ldi	r24, 0x01	; 1
     f28:	90 e0       	ldi	r25, 0x00	; 0
     f2a:	01 df       	rcall	.-510    	; 0xd2e <I2C_LCD_write_string_XY>
     f2c:	0f 90       	pop	r0
     f2e:	0f 90       	pop	r0
     f30:	0f 90       	pop	r0
     f32:	0f 90       	pop	r0
     f34:	0f 90       	pop	r0
     f36:	0f 90       	pop	r0
     f38:	a2 c3       	rjmp	.+1860   	; 0x167e <__stack+0x57f>
     f3a:	81 30       	cpi	r24, 0x01	; 1
     f3c:	91 05       	cpc	r25, r1
     f3e:	09 f0       	breq	.+2      	; 0xf42 <LCD_Display+0x202>
     f40:	51 c0       	rjmp	.+162    	; 0xfe4 <LCD_Display+0x2a4>
     f42:	20 91 7c 02 	lds	r18, 0x027C	; 0x80027c <set_mode>
     f46:	30 91 7d 02 	lds	r19, 0x027D	; 0x80027d <set_mode+0x1>
     f4a:	21 30       	cpi	r18, 0x01	; 1
     f4c:	31 05       	cpc	r19, r1
     f4e:	09 f0       	breq	.+2      	; 0xf52 <LCD_Display+0x212>
     f50:	49 c0       	rjmp	.+146    	; 0xfe4 <LCD_Display+0x2a4>
     f52:	20 91 7a 02 	lds	r18, 0x027A	; 0x80027a <manual_mode>
     f56:	30 91 7b 02 	lds	r19, 0x027B	; 0x80027b <manual_mode+0x1>
     f5a:	22 30       	cpi	r18, 0x02	; 2
     f5c:	31 05       	cpc	r19, r1
     f5e:	09 f0       	breq	.+2      	; 0xf62 <LCD_Display+0x222>
     f60:	41 c0       	rjmp	.+130    	; 0xfe4 <LCD_Display+0x2a4>
     f62:	80 91 8e 02 	lds	r24, 0x028E	; 0x80028e <lcd_display_clock>
     f66:	90 91 8f 02 	lds	r25, 0x028F	; 0x80028f <lcd_display_clock+0x1>
     f6a:	85 36       	cpi	r24, 0x65	; 101
     f6c:	91 05       	cpc	r25, r1
     f6e:	0c f4       	brge	.+2      	; 0xf72 <LCD_Display+0x232>
     f70:	86 c3       	rjmp	.+1804   	; 0x167e <__stack+0x57f>
     f72:	10 92 8f 02 	sts	0x028F, r1	; 0x80028f <lcd_display_clock+0x1>
     f76:	10 92 8e 02 	sts	0x028E, r1	; 0x80028e <lcd_display_clock>
     f7a:	81 e1       	ldi	r24, 0x11	; 17
     f7c:	e5 e4       	ldi	r30, 0x45	; 69
     f7e:	f1 e0       	ldi	r31, 0x01	; 1
     f80:	a0 e9       	ldi	r26, 0x90	; 144
     f82:	b2 e0       	ldi	r27, 0x02	; 2
     f84:	01 90       	ld	r0, Z+
     f86:	0d 92       	st	X+, r0
     f88:	8a 95       	dec	r24
     f8a:	e1 f7       	brne	.-8      	; 0xf84 <LCD_Display+0x244>
     f8c:	40 e9       	ldi	r20, 0x90	; 144
     f8e:	52 e0       	ldi	r21, 0x02	; 2
     f90:	60 e0       	ldi	r22, 0x00	; 0
     f92:	70 e0       	ldi	r23, 0x00	; 0
     f94:	80 e0       	ldi	r24, 0x00	; 0
     f96:	90 e0       	ldi	r25, 0x00	; 0
     f98:	ca de       	rcall	.-620    	; 0xd2e <I2C_LCD_write_string_XY>
     f9a:	80 91 06 01 	lds	r24, 0x0106	; 0x800106 <spindry_strength>
     f9e:	90 91 07 01 	lds	r25, 0x0107	; 0x800107 <spindry_strength+0x1>
     fa2:	82 30       	cpi	r24, 0x02	; 2
     fa4:	91 05       	cpc	r25, r1
     fa6:	71 f0       	breq	.+28     	; 0xfc4 <LCD_Display+0x284>
     fa8:	83 30       	cpi	r24, 0x03	; 3
     faa:	91 05       	cpc	r25, r1
     fac:	99 f0       	breq	.+38     	; 0xfd4 <LCD_Display+0x294>
     fae:	01 97       	sbiw	r24, 0x01	; 1
     fb0:	09 f0       	breq	.+2      	; 0xfb4 <LCD_Display+0x274>
     fb2:	65 c3       	rjmp	.+1738   	; 0x167e <__stack+0x57f>
     fb4:	4a e7       	ldi	r20, 0x7A	; 122
     fb6:	51 e0       	ldi	r21, 0x01	; 1
     fb8:	60 e0       	ldi	r22, 0x00	; 0
     fba:	70 e0       	ldi	r23, 0x00	; 0
     fbc:	81 e0       	ldi	r24, 0x01	; 1
     fbe:	90 e0       	ldi	r25, 0x00	; 0
     fc0:	b6 de       	rcall	.-660    	; 0xd2e <I2C_LCD_write_string_XY>
     fc2:	5d c3       	rjmp	.+1722   	; 0x167e <__stack+0x57f>
     fc4:	4b e8       	ldi	r20, 0x8B	; 139
     fc6:	51 e0       	ldi	r21, 0x01	; 1
     fc8:	60 e0       	ldi	r22, 0x00	; 0
     fca:	70 e0       	ldi	r23, 0x00	; 0
     fcc:	81 e0       	ldi	r24, 0x01	; 1
     fce:	90 e0       	ldi	r25, 0x00	; 0
     fd0:	ae de       	rcall	.-676    	; 0xd2e <I2C_LCD_write_string_XY>
     fd2:	55 c3       	rjmp	.+1706   	; 0x167e <__stack+0x57f>
     fd4:	4c e9       	ldi	r20, 0x9C	; 156
     fd6:	51 e0       	ldi	r21, 0x01	; 1
     fd8:	60 e0       	ldi	r22, 0x00	; 0
     fda:	70 e0       	ldi	r23, 0x00	; 0
     fdc:	81 e0       	ldi	r24, 0x01	; 1
     fde:	90 e0       	ldi	r25, 0x00	; 0
     fe0:	a6 de       	rcall	.-692    	; 0xd2e <I2C_LCD_write_string_XY>
     fe2:	4d c3       	rjmp	.+1690   	; 0x167e <__stack+0x57f>
     fe4:	82 30       	cpi	r24, 0x02	; 2
     fe6:	91 05       	cpc	r25, r1
     fe8:	09 f0       	breq	.+2      	; 0xfec <LCD_Display+0x2ac>
     fea:	16 c3       	rjmp	.+1580   	; 0x1618 <__stack+0x519>
     fec:	20 91 78 02 	lds	r18, 0x0278	; 0x800278 <run_stop>
     ff0:	30 91 79 02 	lds	r19, 0x0279	; 0x800279 <run_stop+0x1>
     ff4:	21 30       	cpi	r18, 0x01	; 1
     ff6:	31 05       	cpc	r19, r1
     ff8:	09 f0       	breq	.+2      	; 0xffc <LCD_Display+0x2bc>
     ffa:	0e c3       	rjmp	.+1564   	; 0x1618 <__stack+0x519>
     ffc:	80 91 04 01 	lds	r24, 0x0104	; 0x800104 <water_time>
    1000:	90 91 05 01 	lds	r25, 0x0105	; 0x800105 <water_time+0x1>
    1004:	18 16       	cp	r1, r24
    1006:	19 06       	cpc	r1, r25
    1008:	0c f0       	brlt	.+2      	; 0x100c <__DATA_REGION_LENGTH__+0xc>
    100a:	58 c2       	rjmp	.+1200   	; 0x14bc <__stack+0x3bd>
    100c:	20 91 74 02 	lds	r18, 0x0274	; 0x800274 <rinse_time>
    1010:	30 91 75 02 	lds	r19, 0x0275	; 0x800275 <rinse_time+0x1>
    1014:	12 16       	cp	r1, r18
    1016:	13 06       	cpc	r1, r19
    1018:	0c f0       	brlt	.+2      	; 0x101c <__DATA_REGION_LENGTH__+0x1c>
    101a:	50 c2       	rjmp	.+1184   	; 0x14bc <__stack+0x3bd>
    101c:	40 91 8a 02 	lds	r20, 0x028A	; 0x80028a <machine_s_timer>
    1020:	50 91 8b 02 	lds	r21, 0x028B	; 0x80028b <machine_s_timer+0x1>
    1024:	55 23       	and	r21, r21
    1026:	a4 f1       	brlt	.+104    	; 0x1090 <__DATA_REGION_LENGTH__+0x90>
    1028:	40 91 8a 02 	lds	r20, 0x028A	; 0x80028a <machine_s_timer>
    102c:	50 91 8b 02 	lds	r21, 0x028B	; 0x80028b <machine_s_timer+0x1>
    1030:	48 17       	cp	r20, r24
    1032:	59 07       	cpc	r21, r25
    1034:	6c f5       	brge	.+90     	; 0x1090 <__DATA_REGION_LENGTH__+0x90>
    1036:	80 91 8e 02 	lds	r24, 0x028E	; 0x80028e <lcd_display_clock>
    103a:	90 91 8f 02 	lds	r25, 0x028F	; 0x80028f <lcd_display_clock+0x1>
    103e:	85 36       	cpi	r24, 0x65	; 101
    1040:	91 05       	cpc	r25, r1
    1042:	0c f4       	brge	.+2      	; 0x1046 <__DATA_REGION_LENGTH__+0x46>
    1044:	1c c3       	rjmp	.+1592   	; 0x167e <__stack+0x57f>
    1046:	10 92 8f 02 	sts	0x028F, r1	; 0x80028f <lcd_display_clock+0x1>
    104a:	10 92 8e 02 	sts	0x028E, r1	; 0x80028e <lcd_display_clock>
    104e:	81 e1       	ldi	r24, 0x11	; 17
    1050:	ed ea       	ldi	r30, 0xAD	; 173
    1052:	f1 e0       	ldi	r31, 0x01	; 1
    1054:	a0 e9       	ldi	r26, 0x90	; 144
    1056:	b2 e0       	ldi	r27, 0x02	; 2
    1058:	01 90       	ld	r0, Z+
    105a:	0d 92       	st	X+, r0
    105c:	8a 95       	dec	r24
    105e:	e1 f7       	brne	.-8      	; 0x1058 <__DATA_REGION_LENGTH__+0x58>
    1060:	40 e9       	ldi	r20, 0x90	; 144
    1062:	52 e0       	ldi	r21, 0x02	; 2
    1064:	60 e0       	ldi	r22, 0x00	; 0
    1066:	70 e0       	ldi	r23, 0x00	; 0
    1068:	80 e0       	ldi	r24, 0x00	; 0
    106a:	90 e0       	ldi	r25, 0x00	; 0
    106c:	60 de       	rcall	.-832    	; 0xd2e <I2C_LCD_write_string_XY>
    106e:	81 e1       	ldi	r24, 0x11	; 17
    1070:	ee eb       	ldi	r30, 0xBE	; 190
    1072:	f1 e0       	ldi	r31, 0x01	; 1
    1074:	a0 e9       	ldi	r26, 0x90	; 144
    1076:	b2 e0       	ldi	r27, 0x02	; 2
    1078:	01 90       	ld	r0, Z+
    107a:	0d 92       	st	X+, r0
    107c:	8a 95       	dec	r24
    107e:	e1 f7       	brne	.-8      	; 0x1078 <__DATA_REGION_LENGTH__+0x78>
    1080:	40 e9       	ldi	r20, 0x90	; 144
    1082:	52 e0       	ldi	r21, 0x02	; 2
    1084:	60 e0       	ldi	r22, 0x00	; 0
    1086:	70 e0       	ldi	r23, 0x00	; 0
    1088:	81 e0       	ldi	r24, 0x01	; 1
    108a:	90 e0       	ldi	r25, 0x00	; 0
    108c:	50 de       	rcall	.-864    	; 0xd2e <I2C_LCD_write_string_XY>
    108e:	f7 c2       	rjmp	.+1518   	; 0x167e <__stack+0x57f>
    1090:	40 91 8a 02 	lds	r20, 0x028A	; 0x80028a <machine_s_timer>
    1094:	50 91 8b 02 	lds	r21, 0x028B	; 0x80028b <machine_s_timer+0x1>
    1098:	48 17       	cp	r20, r24
    109a:	59 07       	cpc	r21, r25
    109c:	d4 f1       	brlt	.+116    	; 0x1112 <__stack+0x13>
    109e:	40 91 76 02 	lds	r20, 0x0276	; 0x800276 <wash_time>
    10a2:	50 91 77 02 	lds	r21, 0x0277	; 0x800277 <wash_time+0x1>
    10a6:	48 0f       	add	r20, r24
    10a8:	59 1f       	adc	r21, r25
    10aa:	60 91 8a 02 	lds	r22, 0x028A	; 0x80028a <machine_s_timer>
    10ae:	70 91 8b 02 	lds	r23, 0x028B	; 0x80028b <machine_s_timer+0x1>
    10b2:	64 17       	cp	r22, r20
    10b4:	75 07       	cpc	r23, r21
    10b6:	6c f5       	brge	.+90     	; 0x1112 <__stack+0x13>
    10b8:	80 91 8e 02 	lds	r24, 0x028E	; 0x80028e <lcd_display_clock>
    10bc:	90 91 8f 02 	lds	r25, 0x028F	; 0x80028f <lcd_display_clock+0x1>
    10c0:	85 36       	cpi	r24, 0x65	; 101
    10c2:	91 05       	cpc	r25, r1
    10c4:	0c f4       	brge	.+2      	; 0x10c8 <__DATA_REGION_LENGTH__+0xc8>
    10c6:	db c2       	rjmp	.+1462   	; 0x167e <__stack+0x57f>
    10c8:	10 92 8f 02 	sts	0x028F, r1	; 0x80028f <lcd_display_clock+0x1>
    10cc:	10 92 8e 02 	sts	0x028E, r1	; 0x80028e <lcd_display_clock>
    10d0:	81 e1       	ldi	r24, 0x11	; 17
    10d2:	ed ea       	ldi	r30, 0xAD	; 173
    10d4:	f1 e0       	ldi	r31, 0x01	; 1
    10d6:	a0 e9       	ldi	r26, 0x90	; 144
    10d8:	b2 e0       	ldi	r27, 0x02	; 2
    10da:	01 90       	ld	r0, Z+
    10dc:	0d 92       	st	X+, r0
    10de:	8a 95       	dec	r24
    10e0:	e1 f7       	brne	.-8      	; 0x10da <__DATA_REGION_LENGTH__+0xda>
    10e2:	40 e9       	ldi	r20, 0x90	; 144
    10e4:	52 e0       	ldi	r21, 0x02	; 2
    10e6:	60 e0       	ldi	r22, 0x00	; 0
    10e8:	70 e0       	ldi	r23, 0x00	; 0
    10ea:	80 e0       	ldi	r24, 0x00	; 0
    10ec:	90 e0       	ldi	r25, 0x00	; 0
    10ee:	1f de       	rcall	.-962    	; 0xd2e <I2C_LCD_write_string_XY>
    10f0:	81 e1       	ldi	r24, 0x11	; 17
    10f2:	ef ec       	ldi	r30, 0xCF	; 207
    10f4:	f1 e0       	ldi	r31, 0x01	; 1
    10f6:	a0 e9       	ldi	r26, 0x90	; 144
    10f8:	b2 e0       	ldi	r27, 0x02	; 2
    10fa:	01 90       	ld	r0, Z+
    10fc:	0d 92       	st	X+, r0
    10fe:	8a 95       	dec	r24
    1100:	e1 f7       	brne	.-8      	; 0x10fa <__DATA_REGION_LENGTH__+0xfa>
    1102:	40 e9       	ldi	r20, 0x90	; 144
    1104:	52 e0       	ldi	r21, 0x02	; 2
    1106:	60 e0       	ldi	r22, 0x00	; 0
    1108:	70 e0       	ldi	r23, 0x00	; 0
    110a:	81 e0       	ldi	r24, 0x01	; 1
    110c:	90 e0       	ldi	r25, 0x00	; 0
    110e:	0f de       	rcall	.-994    	; 0xd2e <I2C_LCD_write_string_XY>
    1110:	b6 c2       	rjmp	.+1388   	; 0x167e <__stack+0x57f>
    1112:	60 91 76 02 	lds	r22, 0x0276	; 0x800276 <wash_time>
    1116:	70 91 77 02 	lds	r23, 0x0277	; 0x800277 <wash_time+0x1>
    111a:	fc 01       	movw	r30, r24
    111c:	e6 0f       	add	r30, r22
    111e:	f7 1f       	adc	r31, r23
    1120:	40 91 8a 02 	lds	r20, 0x028A	; 0x80028a <machine_s_timer>
    1124:	50 91 8b 02 	lds	r21, 0x028B	; 0x80028b <machine_s_timer+0x1>
    1128:	4e 17       	cp	r20, r30
    112a:	5f 07       	cpc	r21, r31
    112c:	cc f1       	brlt	.+114    	; 0x11a0 <__stack+0xa1>
    112e:	ac 01       	movw	r20, r24
    1130:	44 0f       	add	r20, r20
    1132:	55 1f       	adc	r21, r21
    1134:	46 0f       	add	r20, r22
    1136:	57 1f       	adc	r21, r23
    1138:	e0 91 8a 02 	lds	r30, 0x028A	; 0x80028a <machine_s_timer>
    113c:	f0 91 8b 02 	lds	r31, 0x028B	; 0x80028b <machine_s_timer+0x1>
    1140:	e4 17       	cp	r30, r20
    1142:	f5 07       	cpc	r31, r21
    1144:	6c f5       	brge	.+90     	; 0x11a0 <__stack+0xa1>
    1146:	80 91 8e 02 	lds	r24, 0x028E	; 0x80028e <lcd_display_clock>
    114a:	90 91 8f 02 	lds	r25, 0x028F	; 0x80028f <lcd_display_clock+0x1>
    114e:	85 36       	cpi	r24, 0x65	; 101
    1150:	91 05       	cpc	r25, r1
    1152:	0c f4       	brge	.+2      	; 0x1156 <__stack+0x57>
    1154:	94 c2       	rjmp	.+1320   	; 0x167e <__stack+0x57f>
    1156:	10 92 8f 02 	sts	0x028F, r1	; 0x80028f <lcd_display_clock+0x1>
    115a:	10 92 8e 02 	sts	0x028E, r1	; 0x80028e <lcd_display_clock>
    115e:	81 e1       	ldi	r24, 0x11	; 17
    1160:	ed ea       	ldi	r30, 0xAD	; 173
    1162:	f1 e0       	ldi	r31, 0x01	; 1
    1164:	a0 e9       	ldi	r26, 0x90	; 144
    1166:	b2 e0       	ldi	r27, 0x02	; 2
    1168:	01 90       	ld	r0, Z+
    116a:	0d 92       	st	X+, r0
    116c:	8a 95       	dec	r24
    116e:	e1 f7       	brne	.-8      	; 0x1168 <__stack+0x69>
    1170:	40 e9       	ldi	r20, 0x90	; 144
    1172:	52 e0       	ldi	r21, 0x02	; 2
    1174:	60 e0       	ldi	r22, 0x00	; 0
    1176:	70 e0       	ldi	r23, 0x00	; 0
    1178:	80 e0       	ldi	r24, 0x00	; 0
    117a:	90 e0       	ldi	r25, 0x00	; 0
    117c:	d8 dd       	rcall	.-1104   	; 0xd2e <I2C_LCD_write_string_XY>
    117e:	81 e1       	ldi	r24, 0x11	; 17
    1180:	e0 ee       	ldi	r30, 0xE0	; 224
    1182:	f1 e0       	ldi	r31, 0x01	; 1
    1184:	a0 e9       	ldi	r26, 0x90	; 144
    1186:	b2 e0       	ldi	r27, 0x02	; 2
    1188:	01 90       	ld	r0, Z+
    118a:	0d 92       	st	X+, r0
    118c:	8a 95       	dec	r24
    118e:	e1 f7       	brne	.-8      	; 0x1188 <__stack+0x89>
    1190:	40 e9       	ldi	r20, 0x90	; 144
    1192:	52 e0       	ldi	r21, 0x02	; 2
    1194:	60 e0       	ldi	r22, 0x00	; 0
    1196:	70 e0       	ldi	r23, 0x00	; 0
    1198:	81 e0       	ldi	r24, 0x01	; 1
    119a:	90 e0       	ldi	r25, 0x00	; 0
    119c:	c8 dd       	rcall	.-1136   	; 0xd2e <I2C_LCD_write_string_XY>
    119e:	6f c2       	rjmp	.+1246   	; 0x167e <__stack+0x57f>
    11a0:	ac 01       	movw	r20, r24
    11a2:	44 0f       	add	r20, r20
    11a4:	55 1f       	adc	r21, r21
    11a6:	46 0f       	add	r20, r22
    11a8:	57 1f       	adc	r21, r23
    11aa:	e0 91 8a 02 	lds	r30, 0x028A	; 0x80028a <machine_s_timer>
    11ae:	f0 91 8b 02 	lds	r31, 0x028B	; 0x80028b <machine_s_timer+0x1>
    11b2:	e4 17       	cp	r30, r20
    11b4:	f5 07       	cpc	r31, r21
    11b6:	dc f1       	brlt	.+118    	; 0x122e <__stack+0x12f>
    11b8:	ac 01       	movw	r20, r24
    11ba:	44 0f       	add	r20, r20
    11bc:	55 1f       	adc	r21, r21
    11be:	48 0f       	add	r20, r24
    11c0:	59 1f       	adc	r21, r25
    11c2:	46 0f       	add	r20, r22
    11c4:	57 1f       	adc	r21, r23
    11c6:	e0 91 8a 02 	lds	r30, 0x028A	; 0x80028a <machine_s_timer>
    11ca:	f0 91 8b 02 	lds	r31, 0x028B	; 0x80028b <machine_s_timer+0x1>
    11ce:	e4 17       	cp	r30, r20
    11d0:	f5 07       	cpc	r31, r21
    11d2:	6c f5       	brge	.+90     	; 0x122e <__stack+0x12f>
    11d4:	80 91 8e 02 	lds	r24, 0x028E	; 0x80028e <lcd_display_clock>
    11d8:	90 91 8f 02 	lds	r25, 0x028F	; 0x80028f <lcd_display_clock+0x1>
    11dc:	85 36       	cpi	r24, 0x65	; 101
    11de:	91 05       	cpc	r25, r1
    11e0:	0c f4       	brge	.+2      	; 0x11e4 <__stack+0xe5>
    11e2:	4d c2       	rjmp	.+1178   	; 0x167e <__stack+0x57f>
    11e4:	10 92 8f 02 	sts	0x028F, r1	; 0x80028f <lcd_display_clock+0x1>
    11e8:	10 92 8e 02 	sts	0x028E, r1	; 0x80028e <lcd_display_clock>
    11ec:	81 e1       	ldi	r24, 0x11	; 17
    11ee:	ed ea       	ldi	r30, 0xAD	; 173
    11f0:	f1 e0       	ldi	r31, 0x01	; 1
    11f2:	a0 e9       	ldi	r26, 0x90	; 144
    11f4:	b2 e0       	ldi	r27, 0x02	; 2
    11f6:	01 90       	ld	r0, Z+
    11f8:	0d 92       	st	X+, r0
    11fa:	8a 95       	dec	r24
    11fc:	e1 f7       	brne	.-8      	; 0x11f6 <__stack+0xf7>
    11fe:	40 e9       	ldi	r20, 0x90	; 144
    1200:	52 e0       	ldi	r21, 0x02	; 2
    1202:	60 e0       	ldi	r22, 0x00	; 0
    1204:	70 e0       	ldi	r23, 0x00	; 0
    1206:	80 e0       	ldi	r24, 0x00	; 0
    1208:	90 e0       	ldi	r25, 0x00	; 0
    120a:	91 dd       	rcall	.-1246   	; 0xd2e <I2C_LCD_write_string_XY>
    120c:	81 e1       	ldi	r24, 0x11	; 17
    120e:	e0 ee       	ldi	r30, 0xE0	; 224
    1210:	f1 e0       	ldi	r31, 0x01	; 1
    1212:	a0 e9       	ldi	r26, 0x90	; 144
    1214:	b2 e0       	ldi	r27, 0x02	; 2
    1216:	01 90       	ld	r0, Z+
    1218:	0d 92       	st	X+, r0
    121a:	8a 95       	dec	r24
    121c:	e1 f7       	brne	.-8      	; 0x1216 <__stack+0x117>
    121e:	40 e9       	ldi	r20, 0x90	; 144
    1220:	52 e0       	ldi	r21, 0x02	; 2
    1222:	60 e0       	ldi	r22, 0x00	; 0
    1224:	70 e0       	ldi	r23, 0x00	; 0
    1226:	81 e0       	ldi	r24, 0x01	; 1
    1228:	90 e0       	ldi	r25, 0x00	; 0
    122a:	81 dd       	rcall	.-1278   	; 0xd2e <I2C_LCD_write_string_XY>
    122c:	28 c2       	rjmp	.+1104   	; 0x167e <__stack+0x57f>
    122e:	ac 01       	movw	r20, r24
    1230:	44 0f       	add	r20, r20
    1232:	55 1f       	adc	r21, r21
    1234:	48 0f       	add	r20, r24
    1236:	59 1f       	adc	r21, r25
    1238:	46 0f       	add	r20, r22
    123a:	57 1f       	adc	r21, r23
    123c:	e0 91 8a 02 	lds	r30, 0x028A	; 0x80028a <machine_s_timer>
    1240:	f0 91 8b 02 	lds	r31, 0x028B	; 0x80028b <machine_s_timer+0x1>
    1244:	e4 17       	cp	r30, r20
    1246:	f5 07       	cpc	r31, r21
    1248:	bc f1       	brlt	.+110    	; 0x12b8 <__stack+0x1b9>
    124a:	a0 91 8a 02 	lds	r26, 0x028A	; 0x80028a <machine_s_timer>
    124e:	b0 91 8b 02 	lds	r27, 0x028B	; 0x80028b <machine_s_timer+0x1>
    1252:	f9 01       	movw	r30, r18
    1254:	e4 0f       	add	r30, r20
    1256:	f5 1f       	adc	r31, r21
    1258:	ae 17       	cp	r26, r30
    125a:	bf 07       	cpc	r27, r31
    125c:	6c f5       	brge	.+90     	; 0x12b8 <__stack+0x1b9>
    125e:	80 91 8e 02 	lds	r24, 0x028E	; 0x80028e <lcd_display_clock>
    1262:	90 91 8f 02 	lds	r25, 0x028F	; 0x80028f <lcd_display_clock+0x1>
    1266:	85 36       	cpi	r24, 0x65	; 101
    1268:	91 05       	cpc	r25, r1
    126a:	0c f4       	brge	.+2      	; 0x126e <__stack+0x16f>
    126c:	08 c2       	rjmp	.+1040   	; 0x167e <__stack+0x57f>
    126e:	10 92 8f 02 	sts	0x028F, r1	; 0x80028f <lcd_display_clock+0x1>
    1272:	10 92 8e 02 	sts	0x028E, r1	; 0x80028e <lcd_display_clock>
    1276:	81 e1       	ldi	r24, 0x11	; 17
    1278:	ed ea       	ldi	r30, 0xAD	; 173
    127a:	f1 e0       	ldi	r31, 0x01	; 1
    127c:	a0 e9       	ldi	r26, 0x90	; 144
    127e:	b2 e0       	ldi	r27, 0x02	; 2
    1280:	01 90       	ld	r0, Z+
    1282:	0d 92       	st	X+, r0
    1284:	8a 95       	dec	r24
    1286:	e1 f7       	brne	.-8      	; 0x1280 <__stack+0x181>
    1288:	40 e9       	ldi	r20, 0x90	; 144
    128a:	52 e0       	ldi	r21, 0x02	; 2
    128c:	60 e0       	ldi	r22, 0x00	; 0
    128e:	70 e0       	ldi	r23, 0x00	; 0
    1290:	80 e0       	ldi	r24, 0x00	; 0
    1292:	90 e0       	ldi	r25, 0x00	; 0
    1294:	4c dd       	rcall	.-1384   	; 0xd2e <I2C_LCD_write_string_XY>
    1296:	85 e1       	ldi	r24, 0x15	; 21
    1298:	e1 ef       	ldi	r30, 0xF1	; 241
    129a:	f1 e0       	ldi	r31, 0x01	; 1
    129c:	a0 e9       	ldi	r26, 0x90	; 144
    129e:	b2 e0       	ldi	r27, 0x02	; 2
    12a0:	01 90       	ld	r0, Z+
    12a2:	0d 92       	st	X+, r0
    12a4:	8a 95       	dec	r24
    12a6:	e1 f7       	brne	.-8      	; 0x12a0 <__stack+0x1a1>
    12a8:	40 e9       	ldi	r20, 0x90	; 144
    12aa:	52 e0       	ldi	r21, 0x02	; 2
    12ac:	60 e0       	ldi	r22, 0x00	; 0
    12ae:	70 e0       	ldi	r23, 0x00	; 0
    12b0:	81 e0       	ldi	r24, 0x01	; 1
    12b2:	90 e0       	ldi	r25, 0x00	; 0
    12b4:	3c dd       	rcall	.-1416   	; 0xd2e <I2C_LCD_write_string_XY>
    12b6:	e3 c1       	rjmp	.+966    	; 0x167e <__stack+0x57f>
    12b8:	42 0f       	add	r20, r18
    12ba:	53 1f       	adc	r21, r19
    12bc:	e0 91 8a 02 	lds	r30, 0x028A	; 0x80028a <machine_s_timer>
    12c0:	f0 91 8b 02 	lds	r31, 0x028B	; 0x80028b <machine_s_timer+0x1>
    12c4:	e4 17       	cp	r30, r20
    12c6:	f5 07       	cpc	r31, r21
    12c8:	0c f4       	brge	.+2      	; 0x12cc <__stack+0x1cd>
    12ca:	3d c0       	rjmp	.+122    	; 0x1346 <__stack+0x247>
    12cc:	ac 01       	movw	r20, r24
    12ce:	44 0f       	add	r20, r20
    12d0:	55 1f       	adc	r21, r21
    12d2:	44 0f       	add	r20, r20
    12d4:	55 1f       	adc	r21, r21
    12d6:	46 0f       	add	r20, r22
    12d8:	57 1f       	adc	r21, r23
    12da:	42 0f       	add	r20, r18
    12dc:	53 1f       	adc	r21, r19
    12de:	e0 91 8a 02 	lds	r30, 0x028A	; 0x80028a <machine_s_timer>
    12e2:	f0 91 8b 02 	lds	r31, 0x028B	; 0x80028b <machine_s_timer+0x1>
    12e6:	e4 17       	cp	r30, r20
    12e8:	f5 07       	cpc	r31, r21
    12ea:	6c f5       	brge	.+90     	; 0x1346 <__stack+0x247>
    12ec:	80 91 8e 02 	lds	r24, 0x028E	; 0x80028e <lcd_display_clock>
    12f0:	90 91 8f 02 	lds	r25, 0x028F	; 0x80028f <lcd_display_clock+0x1>
    12f4:	85 36       	cpi	r24, 0x65	; 101
    12f6:	91 05       	cpc	r25, r1
    12f8:	0c f4       	brge	.+2      	; 0x12fc <__stack+0x1fd>
    12fa:	c1 c1       	rjmp	.+898    	; 0x167e <__stack+0x57f>
    12fc:	10 92 8f 02 	sts	0x028F, r1	; 0x80028f <lcd_display_clock+0x1>
    1300:	10 92 8e 02 	sts	0x028E, r1	; 0x80028e <lcd_display_clock>
    1304:	81 e1       	ldi	r24, 0x11	; 17
    1306:	ed ea       	ldi	r30, 0xAD	; 173
    1308:	f1 e0       	ldi	r31, 0x01	; 1
    130a:	a0 e9       	ldi	r26, 0x90	; 144
    130c:	b2 e0       	ldi	r27, 0x02	; 2
    130e:	01 90       	ld	r0, Z+
    1310:	0d 92       	st	X+, r0
    1312:	8a 95       	dec	r24
    1314:	e1 f7       	brne	.-8      	; 0x130e <__stack+0x20f>
    1316:	40 e9       	ldi	r20, 0x90	; 144
    1318:	52 e0       	ldi	r21, 0x02	; 2
    131a:	60 e0       	ldi	r22, 0x00	; 0
    131c:	70 e0       	ldi	r23, 0x00	; 0
    131e:	80 e0       	ldi	r24, 0x00	; 0
    1320:	90 e0       	ldi	r25, 0x00	; 0
    1322:	05 dd       	rcall	.-1526   	; 0xd2e <I2C_LCD_write_string_XY>
    1324:	86 e1       	ldi	r24, 0x16	; 22
    1326:	e6 e0       	ldi	r30, 0x06	; 6
    1328:	f2 e0       	ldi	r31, 0x02	; 2
    132a:	a0 e9       	ldi	r26, 0x90	; 144
    132c:	b2 e0       	ldi	r27, 0x02	; 2
    132e:	01 90       	ld	r0, Z+
    1330:	0d 92       	st	X+, r0
    1332:	8a 95       	dec	r24
    1334:	e1 f7       	brne	.-8      	; 0x132e <__stack+0x22f>
    1336:	40 e9       	ldi	r20, 0x90	; 144
    1338:	52 e0       	ldi	r21, 0x02	; 2
    133a:	60 e0       	ldi	r22, 0x00	; 0
    133c:	70 e0       	ldi	r23, 0x00	; 0
    133e:	81 e0       	ldi	r24, 0x01	; 1
    1340:	90 e0       	ldi	r25, 0x00	; 0
    1342:	f5 dc       	rcall	.-1558   	; 0xd2e <I2C_LCD_write_string_XY>
    1344:	9c c1       	rjmp	.+824    	; 0x167e <__stack+0x57f>
    1346:	88 0f       	add	r24, r24
    1348:	99 1f       	adc	r25, r25
    134a:	88 0f       	add	r24, r24
    134c:	99 1f       	adc	r25, r25
    134e:	86 0f       	add	r24, r22
    1350:	97 1f       	adc	r25, r23
    1352:	82 0f       	add	r24, r18
    1354:	93 1f       	adc	r25, r19
    1356:	20 91 8a 02 	lds	r18, 0x028A	; 0x80028a <machine_s_timer>
    135a:	30 91 8b 02 	lds	r19, 0x028B	; 0x80028b <machine_s_timer+0x1>
    135e:	28 17       	cp	r18, r24
    1360:	39 07       	cpc	r19, r25
    1362:	0c f4       	brge	.+2      	; 0x1366 <__stack+0x267>
    1364:	42 c0       	rjmp	.+132    	; 0x13ea <__stack+0x2eb>
    1366:	20 91 02 01 	lds	r18, 0x0102	; 0x800102 <spindry_time>
    136a:	30 91 03 01 	lds	r19, 0x0103	; 0x800103 <spindry_time+0x1>
    136e:	28 0f       	add	r18, r24
    1370:	39 1f       	adc	r19, r25
    1372:	40 91 8a 02 	lds	r20, 0x028A	; 0x80028a <machine_s_timer>
    1376:	50 91 8b 02 	lds	r21, 0x028B	; 0x80028b <machine_s_timer+0x1>
    137a:	42 17       	cp	r20, r18
    137c:	53 07       	cpc	r21, r19
    137e:	ac f5       	brge	.+106    	; 0x13ea <__stack+0x2eb>
    1380:	10 92 85 02 	sts	0x0285, r1	; 0x800285 <buzzer_delay+0x1>
    1384:	10 92 84 02 	sts	0x0284, r1	; 0x800284 <buzzer_delay>
    1388:	10 92 83 02 	sts	0x0283, r1	; 0x800283 <buzzer_timer+0x1>
    138c:	10 92 82 02 	sts	0x0282, r1	; 0x800282 <buzzer_timer>
    1390:	80 91 8e 02 	lds	r24, 0x028E	; 0x80028e <lcd_display_clock>
    1394:	90 91 8f 02 	lds	r25, 0x028F	; 0x80028f <lcd_display_clock+0x1>
    1398:	85 36       	cpi	r24, 0x65	; 101
    139a:	91 05       	cpc	r25, r1
    139c:	0c f4       	brge	.+2      	; 0x13a0 <__stack+0x2a1>
    139e:	6f c1       	rjmp	.+734    	; 0x167e <__stack+0x57f>
    13a0:	10 92 8f 02 	sts	0x028F, r1	; 0x80028f <lcd_display_clock+0x1>
    13a4:	10 92 8e 02 	sts	0x028E, r1	; 0x80028e <lcd_display_clock>
    13a8:	81 e1       	ldi	r24, 0x11	; 17
    13aa:	ed ea       	ldi	r30, 0xAD	; 173
    13ac:	f1 e0       	ldi	r31, 0x01	; 1
    13ae:	a0 e9       	ldi	r26, 0x90	; 144
    13b0:	b2 e0       	ldi	r27, 0x02	; 2
    13b2:	01 90       	ld	r0, Z+
    13b4:	0d 92       	st	X+, r0
    13b6:	8a 95       	dec	r24
    13b8:	e1 f7       	brne	.-8      	; 0x13b2 <__stack+0x2b3>
    13ba:	40 e9       	ldi	r20, 0x90	; 144
    13bc:	52 e0       	ldi	r21, 0x02	; 2
    13be:	60 e0       	ldi	r22, 0x00	; 0
    13c0:	70 e0       	ldi	r23, 0x00	; 0
    13c2:	80 e0       	ldi	r24, 0x00	; 0
    13c4:	90 e0       	ldi	r25, 0x00	; 0
    13c6:	b3 dc       	rcall	.-1690   	; 0xd2e <I2C_LCD_write_string_XY>
    13c8:	81 e1       	ldi	r24, 0x11	; 17
    13ca:	ec e1       	ldi	r30, 0x1C	; 28
    13cc:	f2 e0       	ldi	r31, 0x02	; 2
    13ce:	a0 e9       	ldi	r26, 0x90	; 144
    13d0:	b2 e0       	ldi	r27, 0x02	; 2
    13d2:	01 90       	ld	r0, Z+
    13d4:	0d 92       	st	X+, r0
    13d6:	8a 95       	dec	r24
    13d8:	e1 f7       	brne	.-8      	; 0x13d2 <__stack+0x2d3>
    13da:	40 e9       	ldi	r20, 0x90	; 144
    13dc:	52 e0       	ldi	r21, 0x02	; 2
    13de:	60 e0       	ldi	r22, 0x00	; 0
    13e0:	70 e0       	ldi	r23, 0x00	; 0
    13e2:	81 e0       	ldi	r24, 0x01	; 1
    13e4:	90 e0       	ldi	r25, 0x00	; 0
    13e6:	a3 dc       	rcall	.-1722   	; 0xd2e <I2C_LCD_write_string_XY>
    13e8:	4a c1       	rjmp	.+660    	; 0x167e <__stack+0x57f>
    13ea:	20 91 02 01 	lds	r18, 0x0102	; 0x800102 <spindry_time>
    13ee:	30 91 03 01 	lds	r19, 0x0103	; 0x800103 <spindry_time+0x1>
    13f2:	82 0f       	add	r24, r18
    13f4:	93 1f       	adc	r25, r19
    13f6:	20 91 8a 02 	lds	r18, 0x028A	; 0x80028a <machine_s_timer>
    13fa:	30 91 8b 02 	lds	r19, 0x028B	; 0x80028b <machine_s_timer+0x1>
    13fe:	28 17       	cp	r18, r24
    1400:	39 07       	cpc	r19, r25
    1402:	0c f4       	brge	.+2      	; 0x1406 <__stack+0x307>
    1404:	40 c0       	rjmp	.+128    	; 0x1486 <__stack+0x387>
    1406:	20 91 00 01 	lds	r18, 0x0100	; 0x800100 <__DATA_REGION_ORIGIN__>
    140a:	30 91 01 01 	lds	r19, 0x0101	; 0x800101 <__DATA_REGION_ORIGIN__+0x1>
    140e:	28 0f       	add	r18, r24
    1410:	39 1f       	adc	r19, r25
    1412:	40 91 8a 02 	lds	r20, 0x028A	; 0x80028a <machine_s_timer>
    1416:	50 91 8b 02 	lds	r21, 0x028B	; 0x80028b <machine_s_timer+0x1>
    141a:	42 17       	cp	r20, r18
    141c:	53 07       	cpc	r21, r19
    141e:	9c f5       	brge	.+102    	; 0x1486 <__stack+0x387>
    1420:	81 e0       	ldi	r24, 0x01	; 1
    1422:	90 e0       	ldi	r25, 0x00	; 0
    1424:	90 93 73 02 	sts	0x0273, r25	; 0x800273 <wash_complete+0x1>
    1428:	80 93 72 02 	sts	0x0272, r24	; 0x800272 <wash_complete>
    142c:	80 91 8e 02 	lds	r24, 0x028E	; 0x80028e <lcd_display_clock>
    1430:	90 91 8f 02 	lds	r25, 0x028F	; 0x80028f <lcd_display_clock+0x1>
    1434:	85 36       	cpi	r24, 0x65	; 101
    1436:	91 05       	cpc	r25, r1
    1438:	0c f4       	brge	.+2      	; 0x143c <__stack+0x33d>
    143a:	21 c1       	rjmp	.+578    	; 0x167e <__stack+0x57f>
    143c:	10 92 8f 02 	sts	0x028F, r1	; 0x80028f <lcd_display_clock+0x1>
    1440:	10 92 8e 02 	sts	0x028E, r1	; 0x80028e <lcd_display_clock>
    1444:	83 e1       	ldi	r24, 0x13	; 19
    1446:	ed e2       	ldi	r30, 0x2D	; 45
    1448:	f2 e0       	ldi	r31, 0x02	; 2
    144a:	a0 e9       	ldi	r26, 0x90	; 144
    144c:	b2 e0       	ldi	r27, 0x02	; 2
    144e:	01 90       	ld	r0, Z+
    1450:	0d 92       	st	X+, r0
    1452:	8a 95       	dec	r24
    1454:	e1 f7       	brne	.-8      	; 0x144e <__stack+0x34f>
    1456:	40 e9       	ldi	r20, 0x90	; 144
    1458:	52 e0       	ldi	r21, 0x02	; 2
    145a:	60 e0       	ldi	r22, 0x00	; 0
    145c:	70 e0       	ldi	r23, 0x00	; 0
    145e:	80 e0       	ldi	r24, 0x00	; 0
    1460:	90 e0       	ldi	r25, 0x00	; 0
    1462:	65 dc       	rcall	.-1846   	; 0xd2e <I2C_LCD_write_string_XY>
    1464:	81 e1       	ldi	r24, 0x11	; 17
    1466:	e3 e2       	ldi	r30, 0x23	; 35
    1468:	f1 e0       	ldi	r31, 0x01	; 1
    146a:	a0 e9       	ldi	r26, 0x90	; 144
    146c:	b2 e0       	ldi	r27, 0x02	; 2
    146e:	01 90       	ld	r0, Z+
    1470:	0d 92       	st	X+, r0
    1472:	8a 95       	dec	r24
    1474:	e1 f7       	brne	.-8      	; 0x146e <__stack+0x36f>
    1476:	40 e9       	ldi	r20, 0x90	; 144
    1478:	52 e0       	ldi	r21, 0x02	; 2
    147a:	60 e0       	ldi	r22, 0x00	; 0
    147c:	70 e0       	ldi	r23, 0x00	; 0
    147e:	81 e0       	ldi	r24, 0x01	; 1
    1480:	90 e0       	ldi	r25, 0x00	; 0
    1482:	55 dc       	rcall	.-1878   	; 0xd2e <I2C_LCD_write_string_XY>
    1484:	fc c0       	rjmp	.+504    	; 0x167e <__stack+0x57f>
    1486:	20 91 00 01 	lds	r18, 0x0100	; 0x800100 <__DATA_REGION_ORIGIN__>
    148a:	30 91 01 01 	lds	r19, 0x0101	; 0x800101 <__DATA_REGION_ORIGIN__+0x1>
    148e:	82 0f       	add	r24, r18
    1490:	93 1f       	adc	r25, r19
    1492:	20 91 8a 02 	lds	r18, 0x028A	; 0x80028a <machine_s_timer>
    1496:	30 91 8b 02 	lds	r19, 0x028B	; 0x80028b <machine_s_timer+0x1>
    149a:	28 17       	cp	r18, r24
    149c:	39 07       	cpc	r19, r25
    149e:	0c f4       	brge	.+2      	; 0x14a2 <__stack+0x3a3>
    14a0:	ee c0       	rjmp	.+476    	; 0x167e <__stack+0x57f>
    14a2:	10 92 73 02 	sts	0x0273, r1	; 0x800273 <wash_complete+0x1>
    14a6:	10 92 72 02 	sts	0x0272, r1	; 0x800272 <wash_complete>
    14aa:	10 92 7f 02 	sts	0x027F, r1	; 0x80027f <set_reset+0x1>
    14ae:	10 92 7e 02 	sts	0x027E, r1	; 0x80027e <set_reset>
    14b2:	d2 d9       	rcall	.-3164   	; 0x858 <not_display_fnd>
    14b4:	1b bc       	out	0x2b, r1	; 43
    14b6:	1a bc       	out	0x2a, r1	; 42
    14b8:	1b ba       	out	0x1b, r1	; 27
    14ba:	e1 c0       	rjmp	.+450    	; 0x167e <__stack+0x57f>
    14bc:	80 91 8a 02 	lds	r24, 0x028A	; 0x80028a <machine_s_timer>
    14c0:	90 91 8b 02 	lds	r25, 0x028B	; 0x80028b <machine_s_timer+0x1>
    14c4:	99 23       	and	r25, r25
    14c6:	0c f4       	brge	.+2      	; 0x14ca <__stack+0x3cb>
    14c8:	40 c0       	rjmp	.+128    	; 0x154a <__stack+0x44b>
    14ca:	20 91 8a 02 	lds	r18, 0x028A	; 0x80028a <machine_s_timer>
    14ce:	30 91 8b 02 	lds	r19, 0x028B	; 0x80028b <machine_s_timer+0x1>
    14d2:	80 91 02 01 	lds	r24, 0x0102	; 0x800102 <spindry_time>
    14d6:	90 91 03 01 	lds	r25, 0x0103	; 0x800103 <spindry_time+0x1>
    14da:	28 17       	cp	r18, r24
    14dc:	39 07       	cpc	r19, r25
    14de:	ac f5       	brge	.+106    	; 0x154a <__stack+0x44b>
    14e0:	10 92 85 02 	sts	0x0285, r1	; 0x800285 <buzzer_delay+0x1>
    14e4:	10 92 84 02 	sts	0x0284, r1	; 0x800284 <buzzer_delay>
    14e8:	10 92 83 02 	sts	0x0283, r1	; 0x800283 <buzzer_timer+0x1>
    14ec:	10 92 82 02 	sts	0x0282, r1	; 0x800282 <buzzer_timer>
    14f0:	80 91 8e 02 	lds	r24, 0x028E	; 0x80028e <lcd_display_clock>
    14f4:	90 91 8f 02 	lds	r25, 0x028F	; 0x80028f <lcd_display_clock+0x1>
    14f8:	85 36       	cpi	r24, 0x65	; 101
    14fa:	91 05       	cpc	r25, r1
    14fc:	0c f4       	brge	.+2      	; 0x1500 <__stack+0x401>
    14fe:	bf c0       	rjmp	.+382    	; 0x167e <__stack+0x57f>
    1500:	10 92 8f 02 	sts	0x028F, r1	; 0x80028f <lcd_display_clock+0x1>
    1504:	10 92 8e 02 	sts	0x028E, r1	; 0x80028e <lcd_display_clock>
    1508:	81 e1       	ldi	r24, 0x11	; 17
    150a:	ed ea       	ldi	r30, 0xAD	; 173
    150c:	f1 e0       	ldi	r31, 0x01	; 1
    150e:	a0 e9       	ldi	r26, 0x90	; 144
    1510:	b2 e0       	ldi	r27, 0x02	; 2
    1512:	01 90       	ld	r0, Z+
    1514:	0d 92       	st	X+, r0
    1516:	8a 95       	dec	r24
    1518:	e1 f7       	brne	.-8      	; 0x1512 <__stack+0x413>
    151a:	40 e9       	ldi	r20, 0x90	; 144
    151c:	52 e0       	ldi	r21, 0x02	; 2
    151e:	60 e0       	ldi	r22, 0x00	; 0
    1520:	70 e0       	ldi	r23, 0x00	; 0
    1522:	80 e0       	ldi	r24, 0x00	; 0
    1524:	90 e0       	ldi	r25, 0x00	; 0
    1526:	03 dc       	rcall	.-2042   	; 0xd2e <I2C_LCD_write_string_XY>
    1528:	81 e1       	ldi	r24, 0x11	; 17
    152a:	ec e1       	ldi	r30, 0x1C	; 28
    152c:	f2 e0       	ldi	r31, 0x02	; 2
    152e:	a0 e9       	ldi	r26, 0x90	; 144
    1530:	b2 e0       	ldi	r27, 0x02	; 2
    1532:	01 90       	ld	r0, Z+
    1534:	0d 92       	st	X+, r0
    1536:	8a 95       	dec	r24
    1538:	e1 f7       	brne	.-8      	; 0x1532 <__stack+0x433>
    153a:	40 e9       	ldi	r20, 0x90	; 144
    153c:	52 e0       	ldi	r21, 0x02	; 2
    153e:	60 e0       	ldi	r22, 0x00	; 0
    1540:	70 e0       	ldi	r23, 0x00	; 0
    1542:	81 e0       	ldi	r24, 0x01	; 1
    1544:	90 e0       	ldi	r25, 0x00	; 0
    1546:	f3 db       	rcall	.-2074   	; 0xd2e <I2C_LCD_write_string_XY>
    1548:	9a c0       	rjmp	.+308    	; 0x167e <__stack+0x57f>
    154a:	20 91 8a 02 	lds	r18, 0x028A	; 0x80028a <machine_s_timer>
    154e:	30 91 8b 02 	lds	r19, 0x028B	; 0x80028b <machine_s_timer+0x1>
    1552:	80 91 02 01 	lds	r24, 0x0102	; 0x800102 <spindry_time>
    1556:	90 91 03 01 	lds	r25, 0x0103	; 0x800103 <spindry_time+0x1>
    155a:	28 17       	cp	r18, r24
    155c:	39 07       	cpc	r19, r25
    155e:	0c f4       	brge	.+2      	; 0x1562 <__stack+0x463>
    1560:	40 c0       	rjmp	.+128    	; 0x15e2 <__stack+0x4e3>
    1562:	20 91 00 01 	lds	r18, 0x0100	; 0x800100 <__DATA_REGION_ORIGIN__>
    1566:	30 91 01 01 	lds	r19, 0x0101	; 0x800101 <__DATA_REGION_ORIGIN__+0x1>
    156a:	28 0f       	add	r18, r24
    156c:	39 1f       	adc	r19, r25
    156e:	40 91 8a 02 	lds	r20, 0x028A	; 0x80028a <machine_s_timer>
    1572:	50 91 8b 02 	lds	r21, 0x028B	; 0x80028b <machine_s_timer+0x1>
    1576:	42 17       	cp	r20, r18
    1578:	53 07       	cpc	r21, r19
    157a:	9c f5       	brge	.+102    	; 0x15e2 <__stack+0x4e3>
    157c:	81 e0       	ldi	r24, 0x01	; 1
    157e:	90 e0       	ldi	r25, 0x00	; 0
    1580:	90 93 73 02 	sts	0x0273, r25	; 0x800273 <wash_complete+0x1>
    1584:	80 93 72 02 	sts	0x0272, r24	; 0x800272 <wash_complete>
    1588:	80 91 8e 02 	lds	r24, 0x028E	; 0x80028e <lcd_display_clock>
    158c:	90 91 8f 02 	lds	r25, 0x028F	; 0x80028f <lcd_display_clock+0x1>
    1590:	85 36       	cpi	r24, 0x65	; 101
    1592:	91 05       	cpc	r25, r1
    1594:	0c f4       	brge	.+2      	; 0x1598 <__stack+0x499>
    1596:	73 c0       	rjmp	.+230    	; 0x167e <__stack+0x57f>
    1598:	10 92 8f 02 	sts	0x028F, r1	; 0x80028f <lcd_display_clock+0x1>
    159c:	10 92 8e 02 	sts	0x028E, r1	; 0x80028e <lcd_display_clock>
    15a0:	81 e1       	ldi	r24, 0x11	; 17
    15a2:	e0 e4       	ldi	r30, 0x40	; 64
    15a4:	f2 e0       	ldi	r31, 0x02	; 2
    15a6:	a0 e9       	ldi	r26, 0x90	; 144
    15a8:	b2 e0       	ldi	r27, 0x02	; 2
    15aa:	01 90       	ld	r0, Z+
    15ac:	0d 92       	st	X+, r0
    15ae:	8a 95       	dec	r24
    15b0:	e1 f7       	brne	.-8      	; 0x15aa <__stack+0x4ab>
    15b2:	40 e9       	ldi	r20, 0x90	; 144
    15b4:	52 e0       	ldi	r21, 0x02	; 2
    15b6:	60 e0       	ldi	r22, 0x00	; 0
    15b8:	70 e0       	ldi	r23, 0x00	; 0
    15ba:	80 e0       	ldi	r24, 0x00	; 0
    15bc:	90 e0       	ldi	r25, 0x00	; 0
    15be:	b7 db       	rcall	.-2194   	; 0xd2e <I2C_LCD_write_string_XY>
    15c0:	81 e1       	ldi	r24, 0x11	; 17
    15c2:	e3 e2       	ldi	r30, 0x23	; 35
    15c4:	f1 e0       	ldi	r31, 0x01	; 1
    15c6:	a0 e9       	ldi	r26, 0x90	; 144
    15c8:	b2 e0       	ldi	r27, 0x02	; 2
    15ca:	01 90       	ld	r0, Z+
    15cc:	0d 92       	st	X+, r0
    15ce:	8a 95       	dec	r24
    15d0:	e1 f7       	brne	.-8      	; 0x15ca <__stack+0x4cb>
    15d2:	40 e9       	ldi	r20, 0x90	; 144
    15d4:	52 e0       	ldi	r21, 0x02	; 2
    15d6:	60 e0       	ldi	r22, 0x00	; 0
    15d8:	70 e0       	ldi	r23, 0x00	; 0
    15da:	81 e0       	ldi	r24, 0x01	; 1
    15dc:	90 e0       	ldi	r25, 0x00	; 0
    15de:	a7 db       	rcall	.-2226   	; 0xd2e <I2C_LCD_write_string_XY>
    15e0:	4e c0       	rjmp	.+156    	; 0x167e <__stack+0x57f>
    15e2:	20 91 00 01 	lds	r18, 0x0100	; 0x800100 <__DATA_REGION_ORIGIN__>
    15e6:	30 91 01 01 	lds	r19, 0x0101	; 0x800101 <__DATA_REGION_ORIGIN__+0x1>
    15ea:	82 0f       	add	r24, r18
    15ec:	93 1f       	adc	r25, r19
    15ee:	20 91 8a 02 	lds	r18, 0x028A	; 0x80028a <machine_s_timer>
    15f2:	30 91 8b 02 	lds	r19, 0x028B	; 0x80028b <machine_s_timer+0x1>
    15f6:	28 17       	cp	r18, r24
    15f8:	39 07       	cpc	r19, r25
    15fa:	0c f4       	brge	.+2      	; 0x15fe <__stack+0x4ff>
    15fc:	40 c0       	rjmp	.+128    	; 0x167e <__stack+0x57f>
    15fe:	10 92 73 02 	sts	0x0273, r1	; 0x800273 <wash_complete+0x1>
    1602:	10 92 72 02 	sts	0x0272, r1	; 0x800272 <wash_complete>
    1606:	10 92 7f 02 	sts	0x027F, r1	; 0x80027f <set_reset+0x1>
    160a:	10 92 7e 02 	sts	0x027E, r1	; 0x80027e <set_reset>
    160e:	24 d9       	rcall	.-3512   	; 0x858 <not_display_fnd>
    1610:	1b bc       	out	0x2b, r1	; 43
    1612:	1a bc       	out	0x2a, r1	; 42
    1614:	1b ba       	out	0x1b, r1	; 27
    1616:	33 c0       	rjmp	.+102    	; 0x167e <__stack+0x57f>
    1618:	02 97       	sbiw	r24, 0x02	; 2
    161a:	89 f5       	brne	.+98     	; 0x167e <__stack+0x57f>
    161c:	80 91 78 02 	lds	r24, 0x0278	; 0x800278 <run_stop>
    1620:	90 91 79 02 	lds	r25, 0x0279	; 0x800279 <run_stop+0x1>
    1624:	02 97       	sbiw	r24, 0x02	; 2
    1626:	59 f5       	brne	.+86     	; 0x167e <__stack+0x57f>
    1628:	80 91 8e 02 	lds	r24, 0x028E	; 0x80028e <lcd_display_clock>
    162c:	90 91 8f 02 	lds	r25, 0x028F	; 0x80028f <lcd_display_clock+0x1>
    1630:	85 36       	cpi	r24, 0x65	; 101
    1632:	91 05       	cpc	r25, r1
    1634:	24 f1       	brlt	.+72     	; 0x167e <__stack+0x57f>
    1636:	10 92 8f 02 	sts	0x028F, r1	; 0x80028f <lcd_display_clock+0x1>
    163a:	10 92 8e 02 	sts	0x028E, r1	; 0x80028e <lcd_display_clock>
    163e:	81 e1       	ldi	r24, 0x11	; 17
    1640:	e2 e1       	ldi	r30, 0x12	; 18
    1642:	f1 e0       	ldi	r31, 0x01	; 1
    1644:	a0 e9       	ldi	r26, 0x90	; 144
    1646:	b2 e0       	ldi	r27, 0x02	; 2
    1648:	01 90       	ld	r0, Z+
    164a:	0d 92       	st	X+, r0
    164c:	8a 95       	dec	r24
    164e:	e1 f7       	brne	.-8      	; 0x1648 <__stack+0x549>
    1650:	40 e9       	ldi	r20, 0x90	; 144
    1652:	52 e0       	ldi	r21, 0x02	; 2
    1654:	60 e0       	ldi	r22, 0x00	; 0
    1656:	70 e0       	ldi	r23, 0x00	; 0
    1658:	80 e0       	ldi	r24, 0x00	; 0
    165a:	90 e0       	ldi	r25, 0x00	; 0
    165c:	68 db       	rcall	.-2352   	; 0xd2e <I2C_LCD_write_string_XY>
    165e:	83 e1       	ldi	r24, 0x13	; 19
    1660:	e1 e5       	ldi	r30, 0x51	; 81
    1662:	f2 e0       	ldi	r31, 0x02	; 2
    1664:	a0 e9       	ldi	r26, 0x90	; 144
    1666:	b2 e0       	ldi	r27, 0x02	; 2
    1668:	01 90       	ld	r0, Z+
    166a:	0d 92       	st	X+, r0
    166c:	8a 95       	dec	r24
    166e:	e1 f7       	brne	.-8      	; 0x1668 <__stack+0x569>
    1670:	40 e9       	ldi	r20, 0x90	; 144
    1672:	52 e0       	ldi	r21, 0x02	; 2
    1674:	60 e0       	ldi	r22, 0x00	; 0
    1676:	70 e0       	ldi	r23, 0x00	; 0
    1678:	81 e0       	ldi	r24, 0x01	; 1
    167a:	90 e0       	ldi	r25, 0x00	; 0
    167c:	58 db       	rcall	.-2384   	; 0xd2e <I2C_LCD_write_string_XY>
    167e:	df 91       	pop	r29
    1680:	cf 91       	pop	r28
    1682:	08 95       	ret

00001684 <LED_control>:
    1684:	80 91 7e 02 	lds	r24, 0x027E	; 0x80027e <set_reset>
    1688:	90 91 7f 02 	lds	r25, 0x027F	; 0x80027f <set_reset+0x1>
    168c:	02 97       	sbiw	r24, 0x02	; 2
    168e:	09 f0       	breq	.+2      	; 0x1692 <LED_control+0xe>
    1690:	d3 c0       	rjmp	.+422    	; 0x1838 <LED_control+0x1b4>
    1692:	80 91 78 02 	lds	r24, 0x0278	; 0x800278 <run_stop>
    1696:	90 91 79 02 	lds	r25, 0x0279	; 0x800279 <run_stop+0x1>
    169a:	01 97       	sbiw	r24, 0x01	; 1
    169c:	09 f0       	breq	.+2      	; 0x16a0 <LED_control+0x1c>
    169e:	cc c0       	rjmp	.+408    	; 0x1838 <LED_control+0x1b4>
    16a0:	80 91 04 01 	lds	r24, 0x0104	; 0x800104 <water_time>
    16a4:	90 91 05 01 	lds	r25, 0x0105	; 0x800105 <water_time+0x1>
    16a8:	18 16       	cp	r1, r24
    16aa:	19 06       	cpc	r1, r25
    16ac:	0c f0       	brlt	.+2      	; 0x16b0 <LED_control+0x2c>
    16ae:	a2 c0       	rjmp	.+324    	; 0x17f4 <LED_control+0x170>
    16b0:	60 91 74 02 	lds	r22, 0x0274	; 0x800274 <rinse_time>
    16b4:	70 91 75 02 	lds	r23, 0x0275	; 0x800275 <rinse_time+0x1>
    16b8:	16 16       	cp	r1, r22
    16ba:	17 06       	cpc	r1, r23
    16bc:	0c f0       	brlt	.+2      	; 0x16c0 <LED_control+0x3c>
    16be:	9a c0       	rjmp	.+308    	; 0x17f4 <LED_control+0x170>
    16c0:	40 91 8a 02 	lds	r20, 0x028A	; 0x80028a <machine_s_timer>
    16c4:	50 91 8b 02 	lds	r21, 0x028B	; 0x80028b <machine_s_timer+0x1>
    16c8:	55 23       	and	r21, r21
    16ca:	34 f0       	brlt	.+12     	; 0x16d8 <LED_control+0x54>
    16cc:	48 17       	cp	r20, r24
    16ce:	59 07       	cpc	r21, r25
    16d0:	1c f4       	brge	.+6      	; 0x16d8 <LED_control+0x54>
    16d2:	81 e0       	ldi	r24, 0x01	; 1
    16d4:	8b bb       	out	0x1b, r24	; 27
    16d6:	08 95       	ret
    16d8:	48 17       	cp	r20, r24
    16da:	59 07       	cpc	r21, r25
    16dc:	64 f0       	brlt	.+24     	; 0x16f6 <LED_control+0x72>
    16de:	20 91 76 02 	lds	r18, 0x0276	; 0x800276 <wash_time>
    16e2:	30 91 77 02 	lds	r19, 0x0277	; 0x800277 <wash_time+0x1>
    16e6:	28 0f       	add	r18, r24
    16e8:	39 1f       	adc	r19, r25
    16ea:	42 17       	cp	r20, r18
    16ec:	53 07       	cpc	r21, r19
    16ee:	1c f4       	brge	.+6      	; 0x16f6 <LED_control+0x72>
    16f0:	88 e0       	ldi	r24, 0x08	; 8
    16f2:	8b bb       	out	0x1b, r24	; 27
    16f4:	08 95       	ret
    16f6:	e0 91 76 02 	lds	r30, 0x0276	; 0x800276 <wash_time>
    16fa:	f0 91 77 02 	lds	r31, 0x0277	; 0x800277 <wash_time+0x1>
    16fe:	9c 01       	movw	r18, r24
    1700:	2e 0f       	add	r18, r30
    1702:	3f 1f       	adc	r19, r31
    1704:	42 17       	cp	r20, r18
    1706:	53 07       	cpc	r21, r19
    1708:	5c f0       	brlt	.+22     	; 0x1720 <LED_control+0x9c>
    170a:	9c 01       	movw	r18, r24
    170c:	22 0f       	add	r18, r18
    170e:	33 1f       	adc	r19, r19
    1710:	2e 0f       	add	r18, r30
    1712:	3f 1f       	adc	r19, r31
    1714:	42 17       	cp	r20, r18
    1716:	53 07       	cpc	r21, r19
    1718:	1c f4       	brge	.+6      	; 0x1720 <LED_control+0x9c>
    171a:	84 e0       	ldi	r24, 0x04	; 4
    171c:	8b bb       	out	0x1b, r24	; 27
    171e:	08 95       	ret
    1720:	9c 01       	movw	r18, r24
    1722:	22 0f       	add	r18, r18
    1724:	33 1f       	adc	r19, r19
    1726:	2e 0f       	add	r18, r30
    1728:	3f 1f       	adc	r19, r31
    172a:	42 17       	cp	r20, r18
    172c:	53 07       	cpc	r21, r19
    172e:	6c f0       	brlt	.+26     	; 0x174a <LED_control+0xc6>
    1730:	9c 01       	movw	r18, r24
    1732:	22 0f       	add	r18, r18
    1734:	33 1f       	adc	r19, r19
    1736:	28 0f       	add	r18, r24
    1738:	39 1f       	adc	r19, r25
    173a:	2e 0f       	add	r18, r30
    173c:	3f 1f       	adc	r19, r31
    173e:	42 17       	cp	r20, r18
    1740:	53 07       	cpc	r21, r19
    1742:	1c f4       	brge	.+6      	; 0x174a <LED_control+0xc6>
    1744:	81 e0       	ldi	r24, 0x01	; 1
    1746:	8b bb       	out	0x1b, r24	; 27
    1748:	08 95       	ret
    174a:	9c 01       	movw	r18, r24
    174c:	22 0f       	add	r18, r18
    174e:	33 1f       	adc	r19, r19
    1750:	28 0f       	add	r18, r24
    1752:	39 1f       	adc	r19, r25
    1754:	2e 0f       	add	r18, r30
    1756:	3f 1f       	adc	r19, r31
    1758:	42 17       	cp	r20, r18
    175a:	53 07       	cpc	r21, r19
    175c:	4c f0       	brlt	.+18     	; 0x1770 <LED_control+0xec>
    175e:	db 01       	movw	r26, r22
    1760:	a2 0f       	add	r26, r18
    1762:	b3 1f       	adc	r27, r19
    1764:	4a 17       	cp	r20, r26
    1766:	5b 07       	cpc	r21, r27
    1768:	1c f4       	brge	.+6      	; 0x1770 <LED_control+0xec>
    176a:	80 e2       	ldi	r24, 0x20	; 32
    176c:	8b bb       	out	0x1b, r24	; 27
    176e:	08 95       	ret
    1770:	26 0f       	add	r18, r22
    1772:	37 1f       	adc	r19, r23
    1774:	42 17       	cp	r20, r18
    1776:	53 07       	cpc	r21, r19
    1778:	7c f0       	brlt	.+30     	; 0x1798 <LED_control+0x114>
    177a:	9c 01       	movw	r18, r24
    177c:	22 0f       	add	r18, r18
    177e:	33 1f       	adc	r19, r19
    1780:	22 0f       	add	r18, r18
    1782:	33 1f       	adc	r19, r19
    1784:	2e 0f       	add	r18, r30
    1786:	3f 1f       	adc	r19, r31
    1788:	26 0f       	add	r18, r22
    178a:	37 1f       	adc	r19, r23
    178c:	42 17       	cp	r20, r18
    178e:	53 07       	cpc	r21, r19
    1790:	1c f4       	brge	.+6      	; 0x1798 <LED_control+0x114>
    1792:	84 e0       	ldi	r24, 0x04	; 4
    1794:	8b bb       	out	0x1b, r24	; 27
    1796:	08 95       	ret
    1798:	9c 01       	movw	r18, r24
    179a:	22 0f       	add	r18, r18
    179c:	33 1f       	adc	r19, r19
    179e:	22 0f       	add	r18, r18
    17a0:	33 1f       	adc	r19, r19
    17a2:	cf 01       	movw	r24, r30
    17a4:	82 0f       	add	r24, r18
    17a6:	93 1f       	adc	r25, r19
    17a8:	86 0f       	add	r24, r22
    17aa:	97 1f       	adc	r25, r23
    17ac:	48 17       	cp	r20, r24
    17ae:	59 07       	cpc	r21, r25
    17b0:	64 f0       	brlt	.+24     	; 0x17ca <LED_control+0x146>
    17b2:	20 91 02 01 	lds	r18, 0x0102	; 0x800102 <spindry_time>
    17b6:	30 91 03 01 	lds	r19, 0x0103	; 0x800103 <spindry_time+0x1>
    17ba:	28 0f       	add	r18, r24
    17bc:	39 1f       	adc	r19, r25
    17be:	42 17       	cp	r20, r18
    17c0:	53 07       	cpc	r21, r19
    17c2:	1c f4       	brge	.+6      	; 0x17ca <LED_control+0x146>
    17c4:	80 e8       	ldi	r24, 0x80	; 128
    17c6:	8b bb       	out	0x1b, r24	; 27
    17c8:	08 95       	ret
    17ca:	20 91 02 01 	lds	r18, 0x0102	; 0x800102 <spindry_time>
    17ce:	30 91 03 01 	lds	r19, 0x0103	; 0x800103 <spindry_time+0x1>
    17d2:	82 0f       	add	r24, r18
    17d4:	93 1f       	adc	r25, r19
    17d6:	48 17       	cp	r20, r24
    17d8:	59 07       	cpc	r21, r25
    17da:	74 f1       	brlt	.+92     	; 0x1838 <LED_control+0x1b4>
    17dc:	20 91 00 01 	lds	r18, 0x0100	; 0x800100 <__DATA_REGION_ORIGIN__>
    17e0:	30 91 01 01 	lds	r19, 0x0101	; 0x800101 <__DATA_REGION_ORIGIN__+0x1>
    17e4:	82 0f       	add	r24, r18
    17e6:	93 1f       	adc	r25, r19
    17e8:	48 17       	cp	r20, r24
    17ea:	59 07       	cpc	r21, r25
    17ec:	2c f5       	brge	.+74     	; 0x1838 <LED_control+0x1b4>
    17ee:	88 ea       	ldi	r24, 0xA8	; 168
    17f0:	8b bb       	out	0x1b, r24	; 27
    17f2:	08 95       	ret
    17f4:	80 91 8a 02 	lds	r24, 0x028A	; 0x80028a <machine_s_timer>
    17f8:	90 91 8b 02 	lds	r25, 0x028B	; 0x80028b <machine_s_timer+0x1>
    17fc:	99 23       	and	r25, r25
    17fe:	54 f0       	brlt	.+20     	; 0x1814 <LED_control+0x190>
    1800:	20 91 02 01 	lds	r18, 0x0102	; 0x800102 <spindry_time>
    1804:	30 91 03 01 	lds	r19, 0x0103	; 0x800103 <spindry_time+0x1>
    1808:	82 17       	cp	r24, r18
    180a:	93 07       	cpc	r25, r19
    180c:	1c f4       	brge	.+6      	; 0x1814 <LED_control+0x190>
    180e:	80 e8       	ldi	r24, 0x80	; 128
    1810:	8b bb       	out	0x1b, r24	; 27
    1812:	08 95       	ret
    1814:	20 91 02 01 	lds	r18, 0x0102	; 0x800102 <spindry_time>
    1818:	30 91 03 01 	lds	r19, 0x0103	; 0x800103 <spindry_time+0x1>
    181c:	82 17       	cp	r24, r18
    181e:	93 07       	cpc	r25, r19
    1820:	5c f0       	brlt	.+22     	; 0x1838 <LED_control+0x1b4>
    1822:	40 91 00 01 	lds	r20, 0x0100	; 0x800100 <__DATA_REGION_ORIGIN__>
    1826:	50 91 01 01 	lds	r21, 0x0101	; 0x800101 <__DATA_REGION_ORIGIN__+0x1>
    182a:	24 0f       	add	r18, r20
    182c:	35 1f       	adc	r19, r21
    182e:	82 17       	cp	r24, r18
    1830:	93 07       	cpc	r25, r19
    1832:	14 f4       	brge	.+4      	; 0x1838 <LED_control+0x1b4>
    1834:	88 ea       	ldi	r24, 0xA8	; 168
    1836:	8b bb       	out	0x1b, r24	; 27
    1838:	08 95       	ret

0000183a <__vector_16>:

void mode_select();

// 약 1ms 마다 ISR(TIMER0_OVF_vect)로 들어온다.
ISR(TIMER0_OVF_vect)
{
    183a:	1f 92       	push	r1
    183c:	0f 92       	push	r0
    183e:	0f b6       	in	r0, 0x3f	; 63
    1840:	0f 92       	push	r0
    1842:	11 24       	eor	r1, r1
    1844:	0b b6       	in	r0, 0x3b	; 59
    1846:	0f 92       	push	r0
    1848:	2f 93       	push	r18
    184a:	3f 93       	push	r19
    184c:	4f 93       	push	r20
    184e:	5f 93       	push	r21
    1850:	6f 93       	push	r22
    1852:	7f 93       	push	r23
    1854:	8f 93       	push	r24
    1856:	9f 93       	push	r25
    1858:	af 93       	push	r26
    185a:	bf 93       	push	r27
    185c:	ef 93       	push	r30
    185e:	ff 93       	push	r31
	machine_ms_timer++;
    1860:	80 91 8c 02 	lds	r24, 0x028C	; 0x80028c <machine_ms_timer>
    1864:	90 91 8d 02 	lds	r25, 0x028D	; 0x80028d <machine_ms_timer+0x1>
    1868:	01 96       	adiw	r24, 0x01	; 1
    186a:	90 93 8d 02 	sts	0x028D, r25	; 0x80028d <machine_ms_timer+0x1>
    186e:	80 93 8c 02 	sts	0x028C, r24	; 0x80028c <machine_ms_timer>
	lcd_display_clock++;
    1872:	80 91 8e 02 	lds	r24, 0x028E	; 0x80028e <lcd_display_clock>
    1876:	90 91 8f 02 	lds	r25, 0x028F	; 0x80028f <lcd_display_clock+0x1>
    187a:	01 96       	adiw	r24, 0x01	; 1
    187c:	90 93 8f 02 	sts	0x028F, r25	; 0x80028f <lcd_display_clock+0x1>
    1880:	80 93 8e 02 	sts	0x028E, r24	; 0x80028e <lcd_display_clock>
	fnd_display_clock++;
    1884:	80 91 88 02 	lds	r24, 0x0288	; 0x800288 <fnd_display_clock>
    1888:	90 91 89 02 	lds	r25, 0x0289	; 0x800289 <fnd_display_clock+0x1>
    188c:	01 96       	adiw	r24, 0x01	; 1
    188e:	90 93 89 02 	sts	0x0289, r25	; 0x800289 <fnd_display_clock+0x1>
    1892:	80 93 88 02 	sts	0x0288, r24	; 0x800288 <fnd_display_clock>
	fan_timer++;
    1896:	80 91 86 02 	lds	r24, 0x0286	; 0x800286 <fan_timer>
    189a:	90 91 87 02 	lds	r25, 0x0287	; 0x800287 <fan_timer+0x1>
    189e:	01 96       	adiw	r24, 0x01	; 1
    18a0:	90 93 87 02 	sts	0x0287, r25	; 0x800287 <fan_timer+0x1>
    18a4:	80 93 86 02 	sts	0x0286, r24	; 0x800286 <fan_timer>
	get_button_timer++;
    18a8:	80 91 80 02 	lds	r24, 0x0280	; 0x800280 <get_button_timer>
    18ac:	90 91 81 02 	lds	r25, 0x0281	; 0x800281 <get_button_timer+0x1>
    18b0:	01 96       	adiw	r24, 0x01	; 1
    18b2:	90 93 81 02 	sts	0x0281, r25	; 0x800281 <get_button_timer+0x1>
    18b6:	80 93 80 02 	sts	0x0280, r24	; 0x800280 <get_button_timer>
	buzzer_delay++;
    18ba:	80 91 84 02 	lds	r24, 0x0284	; 0x800284 <buzzer_delay>
    18be:	90 91 85 02 	lds	r25, 0x0285	; 0x800285 <buzzer_delay+0x1>
    18c2:	01 96       	adiw	r24, 0x01	; 1
    18c4:	90 93 85 02 	sts	0x0285, r25	; 0x800285 <buzzer_delay+0x1>
    18c8:	80 93 84 02 	sts	0x0284, r24	; 0x800284 <buzzer_delay>
	buzzer_timer++;
    18cc:	80 91 82 02 	lds	r24, 0x0282	; 0x800282 <buzzer_timer>
    18d0:	90 91 83 02 	lds	r25, 0x0283	; 0x800283 <buzzer_timer+0x1>
    18d4:	01 96       	adiw	r24, 0x01	; 1
    18d6:	90 93 83 02 	sts	0x0283, r25	; 0x800283 <buzzer_timer+0x1>
    18da:	80 93 82 02 	sts	0x0282, r24	; 0x800282 <buzzer_timer>
	
	
	if(machine_ms_timer >= 1000)
    18de:	80 91 8c 02 	lds	r24, 0x028C	; 0x80028c <machine_ms_timer>
    18e2:	90 91 8d 02 	lds	r25, 0x028D	; 0x80028d <machine_ms_timer+0x1>
    18e6:	88 3e       	cpi	r24, 0xE8	; 232
    18e8:	93 40       	sbci	r25, 0x03	; 3
    18ea:	6c f0       	brlt	.+26     	; 0x1906 <__vector_16+0xcc>
	{
		machine_ms_timer = 0;
    18ec:	10 92 8d 02 	sts	0x028D, r1	; 0x80028d <machine_ms_timer+0x1>
    18f0:	10 92 8c 02 	sts	0x028C, r1	; 0x80028c <machine_ms_timer>
		machine_s_timer++;
    18f4:	80 91 8a 02 	lds	r24, 0x028A	; 0x80028a <machine_s_timer>
    18f8:	90 91 8b 02 	lds	r25, 0x028B	; 0x80028b <machine_s_timer+0x1>
    18fc:	01 96       	adiw	r24, 0x01	; 1
    18fe:	90 93 8b 02 	sts	0x028B, r25	; 0x80028b <machine_s_timer+0x1>
    1902:	80 93 8a 02 	sts	0x028A, r24	; 0x80028a <machine_s_timer>
	}
	
	display_active_fnd();
    1906:	de d8       	rcall	.-3652   	; 0xac4 <display_active_fnd>
	
}
    1908:	ff 91       	pop	r31
    190a:	ef 91       	pop	r30
    190c:	bf 91       	pop	r27
    190e:	af 91       	pop	r26
    1910:	9f 91       	pop	r25
    1912:	8f 91       	pop	r24
    1914:	7f 91       	pop	r23
    1916:	6f 91       	pop	r22
    1918:	5f 91       	pop	r21
    191a:	4f 91       	pop	r20
    191c:	3f 91       	pop	r19
    191e:	2f 91       	pop	r18
    1920:	0f 90       	pop	r0
    1922:	0b be       	out	0x3b, r0	; 59
    1924:	0f 90       	pop	r0
    1926:	0f be       	out	0x3f, r0	; 63
    1928:	0f 90       	pop	r0
    192a:	1f 90       	pop	r1
    192c:	18 95       	reti

0000192e <init_timer0>:

void init_timer0()
{
	TCNT0 = 6;	// 정확히 1msec마다 인터럽트 하기 위해 정해진 값 (256-6 = 250)
    192e:	86 e0       	ldi	r24, 0x06	; 6
    1930:	82 bf       	out	0x32, r24	; 50
	// 분주비를 64로 설정 -> 1msec 마다 인터럽트
	TCCR0 |= (1 << CS02) | (0 << CS01) | (0 << CS00);
    1932:	83 b7       	in	r24, 0x33	; 51
    1934:	84 60       	ori	r24, 0x04	; 4
    1936:	83 bf       	out	0x33, r24	; 51
	TIMSK |= (1 << TOIE0);
    1938:	87 b7       	in	r24, 0x37	; 55
    193a:	81 60       	ori	r24, 0x01	; 1
    193c:	87 bf       	out	0x37, r24	; 55
    193e:	08 95       	ret

00001940 <mode_select>:

}
// 모드 선택 함수
void mode_select()
{
	if(set_reset == RESET)
    1940:	80 91 7e 02 	lds	r24, 0x027E	; 0x80027e <set_reset>
    1944:	90 91 7f 02 	lds	r25, 0x027F	; 0x80027f <set_reset+0x1>
    1948:	00 97       	sbiw	r24, 0x00	; 0
    194a:	01 f5       	brne	.+64     	; 0x198c <mode_select+0x4c>
	{
		if(get_button1())
    194c:	0e 94 6c 00 	call	0xd8	; 0xd8 <get_button1>
    1950:	89 2b       	or	r24, r25
    1952:	09 f4       	brne	.+2      	; 0x1956 <mode_select+0x16>
    1954:	73 c2       	rjmp	.+1254   	; 0x1e3c <mode_select+0x4fc>
		{
			button_buzzer_on();
    1956:	0e 94 a6 01 	call	0x34c	; 0x34c <button_buzzer_on>
			set_reset = SET;
    195a:	81 e0       	ldi	r24, 0x01	; 1
    195c:	90 e0       	ldi	r25, 0x00	; 0
    195e:	90 93 7f 02 	sts	0x027F, r25	; 0x80027f <set_reset+0x1>
    1962:	80 93 7e 02 	sts	0x027E, r24	; 0x80027e <set_reset>
			set_mode = AUTO;
    1966:	10 92 7d 02 	sts	0x027D, r1	; 0x80027d <set_mode+0x1>
    196a:	10 92 7c 02 	sts	0x027C, r1	; 0x80027c <set_mode>
			wash_time = 0;
    196e:	10 92 77 02 	sts	0x0277, r1	; 0x800277 <wash_time+0x1>
    1972:	10 92 76 02 	sts	0x0276, r1	; 0x800276 <wash_time>
			rinse_time = 0;
    1976:	10 92 75 02 	sts	0x0275, r1	; 0x800275 <rinse_time+0x1>
    197a:	10 92 74 02 	sts	0x0274, r1	; 0x800274 <rinse_time>
			spindry_strength = 1;
    197e:	90 93 07 01 	sts	0x0107, r25	; 0x800107 <spindry_strength+0x1>
    1982:	80 93 06 01 	sts	0x0106, r24	; 0x800106 <spindry_strength>
			not_display_fnd();
    1986:	0c 94 2c 04 	jmp	0x858	; 0x858 <not_display_fnd>
    198a:	08 95       	ret
			
		}
	}
	else if(set_reset == SET)
    198c:	81 30       	cpi	r24, 0x01	; 1
    198e:	91 05       	cpc	r25, r1
    1990:	09 f0       	breq	.+2      	; 0x1994 <mode_select+0x54>
    1992:	de c1       	rjmp	.+956    	; 0x1d50 <mode_select+0x410>
	{
		if(set_mode == AUTO)
    1994:	80 91 7c 02 	lds	r24, 0x027C	; 0x80027c <set_mode>
    1998:	90 91 7d 02 	lds	r25, 0x027D	; 0x80027d <set_mode+0x1>
    199c:	00 97       	sbiw	r24, 0x00	; 0
    199e:	09 f0       	breq	.+2      	; 0x19a2 <mode_select+0x62>
    19a0:	75 c0       	rjmp	.+234    	; 0x1a8c <mode_select+0x14c>
		{
			if(get_button1())
    19a2:	0e 94 6c 00 	call	0xd8	; 0xd8 <get_button1>
    19a6:	89 2b       	or	r24, r25
    19a8:	49 f0       	breq	.+18     	; 0x19bc <mode_select+0x7c>
			{
				button_buzzer_on();
    19aa:	0e 94 a6 01 	call	0x34c	; 0x34c <button_buzzer_on>
				set_reset = RESET;
    19ae:	10 92 7f 02 	sts	0x027F, r1	; 0x80027f <set_reset+0x1>
    19b2:	10 92 7e 02 	sts	0x027E, r1	; 0x80027e <set_reset>
				not_display_fnd();
    19b6:	0c 94 2c 04 	jmp	0x858	; 0x858 <not_display_fnd>
    19ba:	08 95       	ret
			}
			else if(get_button2())
    19bc:	0e 94 9b 00 	call	0x136	; 0x136 <get_button2>
    19c0:	89 2b       	or	r24, r25
    19c2:	19 f0       	breq	.+6      	; 0x19ca <mode_select+0x8a>
				button_buzzer_on();
    19c4:	0c 94 a6 01 	jmp	0x34c	; 0x34c <button_buzzer_on>
    19c8:	08 95       	ret
			else if(get_button3())
    19ca:	0e 94 ca 00 	call	0x194	; 0x194 <get_button3>
    19ce:	89 2b       	or	r24, r25
    19d0:	39 f1       	breq	.+78     	; 0x1a20 <mode_select+0xe0>
			{
				button_buzzer_on();
    19d2:	0e 94 a6 01 	call	0x34c	; 0x34c <button_buzzer_on>
				set_reset = ACTIVE;
    19d6:	82 e0       	ldi	r24, 0x02	; 2
    19d8:	90 e0       	ldi	r25, 0x00	; 0
    19da:	90 93 7f 02 	sts	0x027F, r25	; 0x80027f <set_reset+0x1>
    19de:	80 93 7e 02 	sts	0x027E, r24	; 0x80027e <set_reset>
				run_stop = RUN;
    19e2:	21 e0       	ldi	r18, 0x01	; 1
    19e4:	30 e0       	ldi	r19, 0x00	; 0
    19e6:	30 93 79 02 	sts	0x0279, r19	; 0x800279 <run_stop+0x1>
    19ea:	20 93 78 02 	sts	0x0278, r18	; 0x800278 <run_stop>
				machine_ms_timer = 0;
    19ee:	10 92 8d 02 	sts	0x028D, r1	; 0x80028d <machine_ms_timer+0x1>
    19f2:	10 92 8c 02 	sts	0x028C, r1	; 0x80028c <machine_ms_timer>
				machine_s_timer = 0;
    19f6:	10 92 8b 02 	sts	0x028B, r1	; 0x80028b <machine_s_timer+0x1>
    19fa:	10 92 8a 02 	sts	0x028A, r1	; 0x80028a <machine_s_timer>
				wash_time = 30;
    19fe:	2e e1       	ldi	r18, 0x1E	; 30
    1a00:	30 e0       	ldi	r19, 0x00	; 0
    1a02:	30 93 77 02 	sts	0x0277, r19	; 0x800277 <wash_time+0x1>
    1a06:	20 93 76 02 	sts	0x0276, r18	; 0x800276 <wash_time>
				rinse_time = 15;
    1a0a:	2f e0       	ldi	r18, 0x0F	; 15
    1a0c:	30 e0       	ldi	r19, 0x00	; 0
    1a0e:	30 93 75 02 	sts	0x0275, r19	; 0x800275 <rinse_time+0x1>
    1a12:	20 93 74 02 	sts	0x0274, r18	; 0x800274 <rinse_time>
				spindry_strength = 2;
    1a16:	90 93 07 01 	sts	0x0107, r25	; 0x800107 <spindry_strength+0x1>
    1a1a:	80 93 06 01 	sts	0x0106, r24	; 0x800106 <spindry_strength>
    1a1e:	08 95       	ret
			}
			else if(get_button4())
    1a20:	0e 94 f9 00 	call	0x1f2	; 0x1f2 <get_button4>
    1a24:	89 2b       	or	r24, r25
    1a26:	69 f0       	breq	.+26     	; 0x1a42 <mode_select+0x102>
			{
				button_buzzer_on();
    1a28:	0e 94 a6 01 	call	0x34c	; 0x34c <button_buzzer_on>
				set_mode = MANUAL;
    1a2c:	81 e0       	ldi	r24, 0x01	; 1
    1a2e:	90 e0       	ldi	r25, 0x00	; 0
    1a30:	90 93 7d 02 	sts	0x027D, r25	; 0x80027d <set_mode+0x1>
    1a34:	80 93 7c 02 	sts	0x027C, r24	; 0x80027c <set_mode>
				manual_mode = WASH;
    1a38:	10 92 7b 02 	sts	0x027B, r1	; 0x80027b <manual_mode+0x1>
    1a3c:	10 92 7a 02 	sts	0x027A, r1	; 0x80027a <manual_mode>
    1a40:	08 95       	ret
			}
			else if(get_button5())
    1a42:	0e 94 28 01 	call	0x250	; 0x250 <get_button5>
    1a46:	89 2b       	or	r24, r25
    1a48:	69 f0       	breq	.+26     	; 0x1a64 <mode_select+0x124>
			{
				button_buzzer_on();
    1a4a:	0e 94 a6 01 	call	0x34c	; 0x34c <button_buzzer_on>
				set_mode = MANUAL;
    1a4e:	81 e0       	ldi	r24, 0x01	; 1
    1a50:	90 e0       	ldi	r25, 0x00	; 0
    1a52:	90 93 7d 02 	sts	0x027D, r25	; 0x80027d <set_mode+0x1>
    1a56:	80 93 7c 02 	sts	0x027C, r24	; 0x80027c <set_mode>
				manual_mode = RINSE;
    1a5a:	90 93 7b 02 	sts	0x027B, r25	; 0x80027b <manual_mode+0x1>
    1a5e:	80 93 7a 02 	sts	0x027A, r24	; 0x80027a <manual_mode>
    1a62:	08 95       	ret
			}
			else if(get_button6())
    1a64:	0e 94 57 01 	call	0x2ae	; 0x2ae <get_button6>
    1a68:	89 2b       	or	r24, r25
    1a6a:	09 f4       	brne	.+2      	; 0x1a6e <mode_select+0x12e>
    1a6c:	e7 c1       	rjmp	.+974    	; 0x1e3c <mode_select+0x4fc>
			{
				button_buzzer_on();
    1a6e:	0e 94 a6 01 	call	0x34c	; 0x34c <button_buzzer_on>
				set_mode = MANUAL;
    1a72:	81 e0       	ldi	r24, 0x01	; 1
    1a74:	90 e0       	ldi	r25, 0x00	; 0
    1a76:	90 93 7d 02 	sts	0x027D, r25	; 0x80027d <set_mode+0x1>
    1a7a:	80 93 7c 02 	sts	0x027C, r24	; 0x80027c <set_mode>
				manual_mode = SPINDRY;
    1a7e:	82 e0       	ldi	r24, 0x02	; 2
    1a80:	90 e0       	ldi	r25, 0x00	; 0
    1a82:	90 93 7b 02 	sts	0x027B, r25	; 0x80027b <manual_mode+0x1>
    1a86:	80 93 7a 02 	sts	0x027A, r24	; 0x80027a <manual_mode>
    1a8a:	08 95       	ret
			}
		}
		else if(set_mode == MANUAL && manual_mode == WASH)
    1a8c:	81 30       	cpi	r24, 0x01	; 1
    1a8e:	91 05       	cpc	r25, r1
    1a90:	09 f0       	breq	.+2      	; 0x1a94 <mode_select+0x154>
    1a92:	70 c0       	rjmp	.+224    	; 0x1b74 <mode_select+0x234>
    1a94:	20 91 7a 02 	lds	r18, 0x027A	; 0x80027a <manual_mode>
    1a98:	30 91 7b 02 	lds	r19, 0x027B	; 0x80027b <manual_mode+0x1>
    1a9c:	23 2b       	or	r18, r19
    1a9e:	09 f0       	breq	.+2      	; 0x1aa2 <mode_select+0x162>
    1aa0:	69 c0       	rjmp	.+210    	; 0x1b74 <mode_select+0x234>
		{
			if(get_button1())
    1aa2:	0e 94 6c 00 	call	0xd8	; 0xd8 <get_button1>
    1aa6:	89 2b       	or	r24, r25
    1aa8:	69 f0       	breq	.+26     	; 0x1ac4 <mode_select+0x184>
			{
				button_buzzer_on();
    1aaa:	0e 94 a6 01 	call	0x34c	; 0x34c <button_buzzer_on>
				set_reset = RESET;
    1aae:	10 92 7f 02 	sts	0x027F, r1	; 0x80027f <set_reset+0x1>
    1ab2:	10 92 7e 02 	sts	0x027E, r1	; 0x80027e <set_reset>
				set_mode = AUTO;
    1ab6:	10 92 7d 02 	sts	0x027D, r1	; 0x80027d <set_mode+0x1>
    1aba:	10 92 7c 02 	sts	0x027C, r1	; 0x80027c <set_mode>
				not_display_fnd();
    1abe:	0c 94 2c 04 	jmp	0x858	; 0x858 <not_display_fnd>
    1ac2:	08 95       	ret
			}
			else if(get_button2())
    1ac4:	0e 94 9b 00 	call	0x136	; 0x136 <get_button2>
    1ac8:	89 2b       	or	r24, r25
    1aca:	39 f0       	breq	.+14     	; 0x1ada <mode_select+0x19a>
			{
				button_buzzer_on();
    1acc:	0e 94 a6 01 	call	0x34c	; 0x34c <button_buzzer_on>
				set_mode = AUTO;
    1ad0:	10 92 7d 02 	sts	0x027D, r1	; 0x80027d <set_mode+0x1>
    1ad4:	10 92 7c 02 	sts	0x027C, r1	; 0x80027c <set_mode>
    1ad8:	08 95       	ret
			}
			else if(get_button3())
    1ada:	0e 94 ca 00 	call	0x194	; 0x194 <get_button3>
    1ade:	89 2b       	or	r24, r25
    1ae0:	b9 f0       	breq	.+46     	; 0x1b10 <mode_select+0x1d0>
			{
				button_buzzer_on();
    1ae2:	0e 94 a6 01 	call	0x34c	; 0x34c <button_buzzer_on>
				set_reset = ACTIVE;
    1ae6:	82 e0       	ldi	r24, 0x02	; 2
    1ae8:	90 e0       	ldi	r25, 0x00	; 0
    1aea:	90 93 7f 02 	sts	0x027F, r25	; 0x80027f <set_reset+0x1>
    1aee:	80 93 7e 02 	sts	0x027E, r24	; 0x80027e <set_reset>
				run_stop = RUN;
    1af2:	81 e0       	ldi	r24, 0x01	; 1
    1af4:	90 e0       	ldi	r25, 0x00	; 0
    1af6:	90 93 79 02 	sts	0x0279, r25	; 0x800279 <run_stop+0x1>
    1afa:	80 93 78 02 	sts	0x0278, r24	; 0x800278 <run_stop>
				machine_ms_timer = 0;
    1afe:	10 92 8d 02 	sts	0x028D, r1	; 0x80028d <machine_ms_timer+0x1>
    1b02:	10 92 8c 02 	sts	0x028C, r1	; 0x80028c <machine_ms_timer>
				machine_s_timer = 0;
    1b06:	10 92 8b 02 	sts	0x028B, r1	; 0x80028b <machine_s_timer+0x1>
    1b0a:	10 92 8a 02 	sts	0x028A, r1	; 0x80028a <machine_s_timer>
    1b0e:	08 95       	ret
			}
			else if(get_button4())
    1b10:	0e 94 f9 00 	call	0x1f2	; 0x1f2 <get_button4>
    1b14:	89 2b       	or	r24, r25
    1b16:	99 f0       	breq	.+38     	; 0x1b3e <mode_select+0x1fe>
			{
				button_buzzer_on();
    1b18:	0e 94 a6 01 	call	0x34c	; 0x34c <button_buzzer_on>
				wash_time += 10;
    1b1c:	80 91 76 02 	lds	r24, 0x0276	; 0x800276 <wash_time>
    1b20:	90 91 77 02 	lds	r25, 0x0277	; 0x800277 <wash_time+0x1>
    1b24:	0a 96       	adiw	r24, 0x0a	; 10
    1b26:	90 93 77 02 	sts	0x0277, r25	; 0x800277 <wash_time+0x1>
    1b2a:	80 93 76 02 	sts	0x0276, r24	; 0x800276 <wash_time>
				if(wash_time > 50)
    1b2e:	c3 97       	sbiw	r24, 0x33	; 51
    1b30:	0c f4       	brge	.+2      	; 0x1b34 <mode_select+0x1f4>
    1b32:	84 c1       	rjmp	.+776    	; 0x1e3c <mode_select+0x4fc>
					wash_time = 0;
    1b34:	10 92 77 02 	sts	0x0277, r1	; 0x800277 <wash_time+0x1>
    1b38:	10 92 76 02 	sts	0x0276, r1	; 0x800276 <wash_time>
    1b3c:	08 95       	ret
			}
			else if(get_button5())
    1b3e:	0e 94 28 01 	call	0x250	; 0x250 <get_button5>
    1b42:	89 2b       	or	r24, r25
    1b44:	49 f0       	breq	.+18     	; 0x1b58 <mode_select+0x218>
			{
				button_buzzer_on();
    1b46:	0e 94 a6 01 	call	0x34c	; 0x34c <button_buzzer_on>
				manual_mode = RINSE;
    1b4a:	81 e0       	ldi	r24, 0x01	; 1
    1b4c:	90 e0       	ldi	r25, 0x00	; 0
    1b4e:	90 93 7b 02 	sts	0x027B, r25	; 0x80027b <manual_mode+0x1>
    1b52:	80 93 7a 02 	sts	0x027A, r24	; 0x80027a <manual_mode>
    1b56:	08 95       	ret
			}
			else if(get_button6())
    1b58:	0e 94 57 01 	call	0x2ae	; 0x2ae <get_button6>
    1b5c:	89 2b       	or	r24, r25
    1b5e:	09 f4       	brne	.+2      	; 0x1b62 <mode_select+0x222>
    1b60:	6d c1       	rjmp	.+730    	; 0x1e3c <mode_select+0x4fc>
			{
				button_buzzer_on();
    1b62:	0e 94 a6 01 	call	0x34c	; 0x34c <button_buzzer_on>
				manual_mode = SPINDRY;
    1b66:	82 e0       	ldi	r24, 0x02	; 2
    1b68:	90 e0       	ldi	r25, 0x00	; 0
    1b6a:	90 93 7b 02 	sts	0x027B, r25	; 0x80027b <manual_mode+0x1>
    1b6e:	80 93 7a 02 	sts	0x027A, r24	; 0x80027a <manual_mode>
    1b72:	08 95       	ret
			}
		}
		else if(set_mode == MANUAL && manual_mode == RINSE)
    1b74:	81 30       	cpi	r24, 0x01	; 1
    1b76:	91 05       	cpc	r25, r1
    1b78:	09 f0       	breq	.+2      	; 0x1b7c <mode_select+0x23c>
    1b7a:	73 c0       	rjmp	.+230    	; 0x1c62 <mode_select+0x322>
    1b7c:	20 91 7a 02 	lds	r18, 0x027A	; 0x80027a <manual_mode>
    1b80:	30 91 7b 02 	lds	r19, 0x027B	; 0x80027b <manual_mode+0x1>
    1b84:	21 30       	cpi	r18, 0x01	; 1
    1b86:	31 05       	cpc	r19, r1
    1b88:	09 f0       	breq	.+2      	; 0x1b8c <mode_select+0x24c>
    1b8a:	6b c0       	rjmp	.+214    	; 0x1c62 <mode_select+0x322>
		{
			if(get_button1())
    1b8c:	0e 94 6c 00 	call	0xd8	; 0xd8 <get_button1>
    1b90:	89 2b       	or	r24, r25
    1b92:	89 f0       	breq	.+34     	; 0x1bb6 <mode_select+0x276>
			{
				button_buzzer_on();
    1b94:	0e 94 a6 01 	call	0x34c	; 0x34c <button_buzzer_on>
				set_reset = RESET;
    1b98:	10 92 7f 02 	sts	0x027F, r1	; 0x80027f <set_reset+0x1>
    1b9c:	10 92 7e 02 	sts	0x027E, r1	; 0x80027e <set_reset>
				set_mode = AUTO;
    1ba0:	10 92 7d 02 	sts	0x027D, r1	; 0x80027d <set_mode+0x1>
    1ba4:	10 92 7c 02 	sts	0x027C, r1	; 0x80027c <set_mode>
				manual_mode = WASH;
    1ba8:	10 92 7b 02 	sts	0x027B, r1	; 0x80027b <manual_mode+0x1>
    1bac:	10 92 7a 02 	sts	0x027A, r1	; 0x80027a <manual_mode>
				not_display_fnd();
    1bb0:	0c 94 2c 04 	jmp	0x858	; 0x858 <not_display_fnd>
    1bb4:	08 95       	ret
			}
			else if(get_button2())
    1bb6:	0e 94 9b 00 	call	0x136	; 0x136 <get_button2>
    1bba:	89 2b       	or	r24, r25
    1bbc:	39 f0       	breq	.+14     	; 0x1bcc <mode_select+0x28c>
			{
				button_buzzer_on();
    1bbe:	0e 94 a6 01 	call	0x34c	; 0x34c <button_buzzer_on>
				set_mode = AUTO;
    1bc2:	10 92 7d 02 	sts	0x027D, r1	; 0x80027d <set_mode+0x1>
    1bc6:	10 92 7c 02 	sts	0x027C, r1	; 0x80027c <set_mode>
    1bca:	08 95       	ret
			}
			else if(get_button3())
    1bcc:	0e 94 ca 00 	call	0x194	; 0x194 <get_button3>
    1bd0:	89 2b       	or	r24, r25
    1bd2:	b9 f0       	breq	.+46     	; 0x1c02 <mode_select+0x2c2>
			{
				button_buzzer_on();
    1bd4:	0e 94 a6 01 	call	0x34c	; 0x34c <button_buzzer_on>
				set_reset = ACTIVE;
    1bd8:	82 e0       	ldi	r24, 0x02	; 2
    1bda:	90 e0       	ldi	r25, 0x00	; 0
    1bdc:	90 93 7f 02 	sts	0x027F, r25	; 0x80027f <set_reset+0x1>
    1be0:	80 93 7e 02 	sts	0x027E, r24	; 0x80027e <set_reset>
				run_stop = RUN;
    1be4:	81 e0       	ldi	r24, 0x01	; 1
    1be6:	90 e0       	ldi	r25, 0x00	; 0
    1be8:	90 93 79 02 	sts	0x0279, r25	; 0x800279 <run_stop+0x1>
    1bec:	80 93 78 02 	sts	0x0278, r24	; 0x800278 <run_stop>
				machine_ms_timer = 0;
    1bf0:	10 92 8d 02 	sts	0x028D, r1	; 0x80028d <machine_ms_timer+0x1>
    1bf4:	10 92 8c 02 	sts	0x028C, r1	; 0x80028c <machine_ms_timer>
				machine_s_timer = 0;
    1bf8:	10 92 8b 02 	sts	0x028B, r1	; 0x80028b <machine_s_timer+0x1>
    1bfc:	10 92 8a 02 	sts	0x028A, r1	; 0x80028a <machine_s_timer>
    1c00:	08 95       	ret
			}
			else if(get_button4())
    1c02:	0e 94 f9 00 	call	0x1f2	; 0x1f2 <get_button4>
    1c06:	89 2b       	or	r24, r25
    1c08:	39 f0       	breq	.+14     	; 0x1c18 <mode_select+0x2d8>
			{
				button_buzzer_on();
    1c0a:	0e 94 a6 01 	call	0x34c	; 0x34c <button_buzzer_on>
				manual_mode = WASH;
    1c0e:	10 92 7b 02 	sts	0x027B, r1	; 0x80027b <manual_mode+0x1>
    1c12:	10 92 7a 02 	sts	0x027A, r1	; 0x80027a <manual_mode>
    1c16:	08 95       	ret
			}
			else if(get_button5())
    1c18:	0e 94 28 01 	call	0x250	; 0x250 <get_button5>
    1c1c:	89 2b       	or	r24, r25
    1c1e:	99 f0       	breq	.+38     	; 0x1c46 <mode_select+0x306>
			{
				button_buzzer_on();
    1c20:	0e 94 a6 01 	call	0x34c	; 0x34c <button_buzzer_on>
				rinse_time += 5;
    1c24:	80 91 74 02 	lds	r24, 0x0274	; 0x800274 <rinse_time>
    1c28:	90 91 75 02 	lds	r25, 0x0275	; 0x800275 <rinse_time+0x1>
    1c2c:	05 96       	adiw	r24, 0x05	; 5
    1c2e:	90 93 75 02 	sts	0x0275, r25	; 0x800275 <rinse_time+0x1>
    1c32:	80 93 74 02 	sts	0x0274, r24	; 0x800274 <rinse_time>
				if(rinse_time > 30)
    1c36:	4f 97       	sbiw	r24, 0x1f	; 31
    1c38:	0c f4       	brge	.+2      	; 0x1c3c <mode_select+0x2fc>
    1c3a:	00 c1       	rjmp	.+512    	; 0x1e3c <mode_select+0x4fc>
					rinse_time = 0;
    1c3c:	10 92 75 02 	sts	0x0275, r1	; 0x800275 <rinse_time+0x1>
    1c40:	10 92 74 02 	sts	0x0274, r1	; 0x800274 <rinse_time>
    1c44:	08 95       	ret
			}
			else if(get_button6())
    1c46:	0e 94 57 01 	call	0x2ae	; 0x2ae <get_button6>
    1c4a:	89 2b       	or	r24, r25
    1c4c:	09 f4       	brne	.+2      	; 0x1c50 <mode_select+0x310>
    1c4e:	f6 c0       	rjmp	.+492    	; 0x1e3c <mode_select+0x4fc>
			{
				button_buzzer_on();
    1c50:	0e 94 a6 01 	call	0x34c	; 0x34c <button_buzzer_on>
				manual_mode = SPINDRY;
    1c54:	82 e0       	ldi	r24, 0x02	; 2
    1c56:	90 e0       	ldi	r25, 0x00	; 0
    1c58:	90 93 7b 02 	sts	0x027B, r25	; 0x80027b <manual_mode+0x1>
    1c5c:	80 93 7a 02 	sts	0x027A, r24	; 0x80027a <manual_mode>
    1c60:	08 95       	ret
				
			}
		}
		else if(set_mode == MANUAL && manual_mode == SPINDRY)
    1c62:	01 97       	sbiw	r24, 0x01	; 1
    1c64:	09 f0       	breq	.+2      	; 0x1c68 <mode_select+0x328>
    1c66:	ea c0       	rjmp	.+468    	; 0x1e3c <mode_select+0x4fc>
    1c68:	80 91 7a 02 	lds	r24, 0x027A	; 0x80027a <manual_mode>
    1c6c:	90 91 7b 02 	lds	r25, 0x027B	; 0x80027b <manual_mode+0x1>
    1c70:	02 97       	sbiw	r24, 0x02	; 2
    1c72:	09 f0       	breq	.+2      	; 0x1c76 <mode_select+0x336>
    1c74:	e3 c0       	rjmp	.+454    	; 0x1e3c <mode_select+0x4fc>
		{
			if(get_button1())
    1c76:	0e 94 6c 00 	call	0xd8	; 0xd8 <get_button1>
    1c7a:	89 2b       	or	r24, r25
    1c7c:	89 f0       	breq	.+34     	; 0x1ca0 <mode_select+0x360>
			{
				button_buzzer_on();
    1c7e:	0e 94 a6 01 	call	0x34c	; 0x34c <button_buzzer_on>
				set_reset = RESET;
    1c82:	10 92 7f 02 	sts	0x027F, r1	; 0x80027f <set_reset+0x1>
    1c86:	10 92 7e 02 	sts	0x027E, r1	; 0x80027e <set_reset>
				set_mode = AUTO;
    1c8a:	10 92 7d 02 	sts	0x027D, r1	; 0x80027d <set_mode+0x1>
    1c8e:	10 92 7c 02 	sts	0x027C, r1	; 0x80027c <set_mode>
				manual_mode = WASH;
    1c92:	10 92 7b 02 	sts	0x027B, r1	; 0x80027b <manual_mode+0x1>
    1c96:	10 92 7a 02 	sts	0x027A, r1	; 0x80027a <manual_mode>
				not_display_fnd();
    1c9a:	0c 94 2c 04 	jmp	0x858	; 0x858 <not_display_fnd>
    1c9e:	08 95       	ret
			}
			else if(get_button2())
    1ca0:	0e 94 9b 00 	call	0x136	; 0x136 <get_button2>
    1ca4:	89 2b       	or	r24, r25
    1ca6:	39 f0       	breq	.+14     	; 0x1cb6 <mode_select+0x376>
			{
				button_buzzer_on();
    1ca8:	0e 94 a6 01 	call	0x34c	; 0x34c <button_buzzer_on>
				set_mode = AUTO;
    1cac:	10 92 7d 02 	sts	0x027D, r1	; 0x80027d <set_mode+0x1>
    1cb0:	10 92 7c 02 	sts	0x027C, r1	; 0x80027c <set_mode>
    1cb4:	08 95       	ret
			}
			else if(get_button3())
    1cb6:	0e 94 ca 00 	call	0x194	; 0x194 <get_button3>
    1cba:	89 2b       	or	r24, r25
    1cbc:	b9 f0       	breq	.+46     	; 0x1cec <mode_select+0x3ac>
			{
				button_buzzer_on();
    1cbe:	0e 94 a6 01 	call	0x34c	; 0x34c <button_buzzer_on>
				set_reset = ACTIVE;
    1cc2:	82 e0       	ldi	r24, 0x02	; 2
    1cc4:	90 e0       	ldi	r25, 0x00	; 0
    1cc6:	90 93 7f 02 	sts	0x027F, r25	; 0x80027f <set_reset+0x1>
    1cca:	80 93 7e 02 	sts	0x027E, r24	; 0x80027e <set_reset>
				run_stop = RUN;
    1cce:	81 e0       	ldi	r24, 0x01	; 1
    1cd0:	90 e0       	ldi	r25, 0x00	; 0
    1cd2:	90 93 79 02 	sts	0x0279, r25	; 0x800279 <run_stop+0x1>
    1cd6:	80 93 78 02 	sts	0x0278, r24	; 0x800278 <run_stop>
				machine_ms_timer = 0;
    1cda:	10 92 8d 02 	sts	0x028D, r1	; 0x80028d <machine_ms_timer+0x1>
    1cde:	10 92 8c 02 	sts	0x028C, r1	; 0x80028c <machine_ms_timer>
				machine_s_timer = 0;
    1ce2:	10 92 8b 02 	sts	0x028B, r1	; 0x80028b <machine_s_timer+0x1>
    1ce6:	10 92 8a 02 	sts	0x028A, r1	; 0x80028a <machine_s_timer>
    1cea:	08 95       	ret
			}
			else if(get_button4())
    1cec:	0e 94 f9 00 	call	0x1f2	; 0x1f2 <get_button4>
    1cf0:	89 2b       	or	r24, r25
    1cf2:	39 f0       	breq	.+14     	; 0x1d02 <mode_select+0x3c2>
			{
				button_buzzer_on();
    1cf4:	0e 94 a6 01 	call	0x34c	; 0x34c <button_buzzer_on>
				manual_mode = WASH;
    1cf8:	10 92 7b 02 	sts	0x027B, r1	; 0x80027b <manual_mode+0x1>
    1cfc:	10 92 7a 02 	sts	0x027A, r1	; 0x80027a <manual_mode>
    1d00:	08 95       	ret
			}
			else if(get_button5())
    1d02:	0e 94 28 01 	call	0x250	; 0x250 <get_button5>
    1d06:	89 2b       	or	r24, r25
    1d08:	49 f0       	breq	.+18     	; 0x1d1c <mode_select+0x3dc>
			{
				button_buzzer_on();
    1d0a:	0e 94 a6 01 	call	0x34c	; 0x34c <button_buzzer_on>
				manual_mode = RINSE;
    1d0e:	81 e0       	ldi	r24, 0x01	; 1
    1d10:	90 e0       	ldi	r25, 0x00	; 0
    1d12:	90 93 7b 02 	sts	0x027B, r25	; 0x80027b <manual_mode+0x1>
    1d16:	80 93 7a 02 	sts	0x027A, r24	; 0x80027a <manual_mode>
    1d1a:	08 95       	ret
			}
			else if(get_button6())
    1d1c:	0e 94 57 01 	call	0x2ae	; 0x2ae <get_button6>
    1d20:	89 2b       	or	r24, r25
    1d22:	09 f4       	brne	.+2      	; 0x1d26 <mode_select+0x3e6>
    1d24:	8b c0       	rjmp	.+278    	; 0x1e3c <mode_select+0x4fc>
			{
				button_buzzer_on();
    1d26:	0e 94 a6 01 	call	0x34c	; 0x34c <button_buzzer_on>
				spindry_strength++;
    1d2a:	80 91 06 01 	lds	r24, 0x0106	; 0x800106 <spindry_strength>
    1d2e:	90 91 07 01 	lds	r25, 0x0107	; 0x800107 <spindry_strength+0x1>
    1d32:	01 96       	adiw	r24, 0x01	; 1
    1d34:	90 93 07 01 	sts	0x0107, r25	; 0x800107 <spindry_strength+0x1>
    1d38:	80 93 06 01 	sts	0x0106, r24	; 0x800106 <spindry_strength>
				if(spindry_strength > 3)
    1d3c:	04 97       	sbiw	r24, 0x04	; 4
    1d3e:	0c f4       	brge	.+2      	; 0x1d42 <mode_select+0x402>
    1d40:	7d c0       	rjmp	.+250    	; 0x1e3c <mode_select+0x4fc>
					spindry_strength = 1;
    1d42:	81 e0       	ldi	r24, 0x01	; 1
    1d44:	90 e0       	ldi	r25, 0x00	; 0
    1d46:	90 93 07 01 	sts	0x0107, r25	; 0x800107 <spindry_strength+0x1>
    1d4a:	80 93 06 01 	sts	0x0106, r24	; 0x800106 <spindry_strength>
    1d4e:	08 95       	ret
			}
		}
	}
	else if(set_reset == ACTIVE && run_stop == RUN)
    1d50:	82 30       	cpi	r24, 0x02	; 2
    1d52:	91 05       	cpc	r25, r1
    1d54:	f1 f5       	brne	.+124    	; 0x1dd2 <mode_select+0x492>
    1d56:	20 91 78 02 	lds	r18, 0x0278	; 0x800278 <run_stop>
    1d5a:	30 91 79 02 	lds	r19, 0x0279	; 0x800279 <run_stop+0x1>
    1d5e:	21 30       	cpi	r18, 0x01	; 1
    1d60:	31 05       	cpc	r19, r1
    1d62:	b9 f5       	brne	.+110    	; 0x1dd2 <mode_select+0x492>
	{
		if(get_button1())
    1d64:	0e 94 6c 00 	call	0xd8	; 0xd8 <get_button1>
    1d68:	89 2b       	or	r24, r25
    1d6a:	a9 f0       	breq	.+42     	; 0x1d96 <mode_select+0x456>
		{
			button_buzzer_on();
    1d6c:	0e 94 a6 01 	call	0x34c	; 0x34c <button_buzzer_on>
			set_reset = RESET;
    1d70:	10 92 7f 02 	sts	0x027F, r1	; 0x80027f <set_reset+0x1>
    1d74:	10 92 7e 02 	sts	0x027E, r1	; 0x80027e <set_reset>
			run_stop = READY;
    1d78:	10 92 79 02 	sts	0x0279, r1	; 0x800279 <run_stop+0x1>
    1d7c:	10 92 78 02 	sts	0x0278, r1	; 0x800278 <run_stop>
			not_display_fnd();
    1d80:	0e 94 2c 04 	call	0x858	; 0x858 <not_display_fnd>
			OCR3C = 0;
    1d84:	10 92 83 00 	sts	0x0083, r1	; 0x800083 <__TEXT_REGION_LENGTH__+0x7e0083>
    1d88:	10 92 82 00 	sts	0x0082, r1	; 0x800082 <__TEXT_REGION_LENGTH__+0x7e0082>
			wash_complete = 0;
    1d8c:	10 92 73 02 	sts	0x0273, r1	; 0x800273 <wash_complete+0x1>
    1d90:	10 92 72 02 	sts	0x0272, r1	; 0x800272 <wash_complete>
    1d94:	08 95       	ret
		}
		else if(get_button3())
    1d96:	0e 94 ca 00 	call	0x194	; 0x194 <get_button3>
    1d9a:	89 2b       	or	r24, r25
    1d9c:	09 f4       	brne	.+2      	; 0x1da0 <mode_select+0x460>
    1d9e:	4e c0       	rjmp	.+156    	; 0x1e3c <mode_select+0x4fc>
		{
			button_buzzer_on();
    1da0:	0e 94 a6 01 	call	0x34c	; 0x34c <button_buzzer_on>
			run_stop = STOP;
    1da4:	82 e0       	ldi	r24, 0x02	; 2
    1da6:	90 e0       	ldi	r25, 0x00	; 0
    1da8:	90 93 79 02 	sts	0x0279, r25	; 0x800279 <run_stop+0x1>
    1dac:	80 93 78 02 	sts	0x0278, r24	; 0x800278 <run_stop>
			machine_ms_timer_temp = machine_ms_timer;
    1db0:	80 91 8c 02 	lds	r24, 0x028C	; 0x80028c <machine_ms_timer>
    1db4:	90 91 8d 02 	lds	r25, 0x028D	; 0x80028d <machine_ms_timer+0x1>
    1db8:	90 93 bb 02 	sts	0x02BB, r25	; 0x8002bb <machine_ms_timer_temp+0x1>
    1dbc:	80 93 ba 02 	sts	0x02BA, r24	; 0x8002ba <machine_ms_timer_temp>
			machine_s_timer_temp = machine_s_timer;
    1dc0:	80 91 8a 02 	lds	r24, 0x028A	; 0x80028a <machine_s_timer>
    1dc4:	90 91 8b 02 	lds	r25, 0x028B	; 0x80028b <machine_s_timer+0x1>
    1dc8:	90 93 b9 02 	sts	0x02B9, r25	; 0x8002b9 <machine_s_timer_temp+0x1>
    1dcc:	80 93 b8 02 	sts	0x02B8, r24	; 0x8002b8 <machine_s_timer_temp>
    1dd0:	08 95       	ret
		}
	}
	else if(set_reset == ACTIVE && run_stop == STOP)
    1dd2:	02 97       	sbiw	r24, 0x02	; 2
    1dd4:	99 f5       	brne	.+102    	; 0x1e3c <mode_select+0x4fc>
    1dd6:	80 91 78 02 	lds	r24, 0x0278	; 0x800278 <run_stop>
    1dda:	90 91 79 02 	lds	r25, 0x0279	; 0x800279 <run_stop+0x1>
    1dde:	02 97       	sbiw	r24, 0x02	; 2
    1de0:	69 f5       	brne	.+90     	; 0x1e3c <mode_select+0x4fc>
	{
		if(get_button1())
    1de2:	0e 94 6c 00 	call	0xd8	; 0xd8 <get_button1>
    1de6:	89 2b       	or	r24, r25
    1de8:	69 f0       	breq	.+26     	; 0x1e04 <mode_select+0x4c4>
		{
			button_buzzer_on();
    1dea:	0e 94 a6 01 	call	0x34c	; 0x34c <button_buzzer_on>
			set_reset = RESET;
    1dee:	10 92 7f 02 	sts	0x027F, r1	; 0x80027f <set_reset+0x1>
    1df2:	10 92 7e 02 	sts	0x027E, r1	; 0x80027e <set_reset>
			run_stop = READY;
    1df6:	10 92 79 02 	sts	0x0279, r1	; 0x800279 <run_stop+0x1>
    1dfa:	10 92 78 02 	sts	0x0278, r1	; 0x800278 <run_stop>
			not_display_fnd();
    1dfe:	0c 94 2c 04 	jmp	0x858	; 0x858 <not_display_fnd>
    1e02:	08 95       	ret
		}
		else if(get_button3())
    1e04:	0e 94 ca 00 	call	0x194	; 0x194 <get_button3>
    1e08:	89 2b       	or	r24, r25
    1e0a:	c1 f0       	breq	.+48     	; 0x1e3c <mode_select+0x4fc>
		{
			button_buzzer_on();
    1e0c:	0e 94 a6 01 	call	0x34c	; 0x34c <button_buzzer_on>
			run_stop = RUN;
    1e10:	81 e0       	ldi	r24, 0x01	; 1
    1e12:	90 e0       	ldi	r25, 0x00	; 0
    1e14:	90 93 79 02 	sts	0x0279, r25	; 0x800279 <run_stop+0x1>
    1e18:	80 93 78 02 	sts	0x0278, r24	; 0x800278 <run_stop>
			machine_ms_timer = machine_ms_timer_temp;
    1e1c:	80 91 ba 02 	lds	r24, 0x02BA	; 0x8002ba <machine_ms_timer_temp>
    1e20:	90 91 bb 02 	lds	r25, 0x02BB	; 0x8002bb <machine_ms_timer_temp+0x1>
    1e24:	90 93 8d 02 	sts	0x028D, r25	; 0x80028d <machine_ms_timer+0x1>
    1e28:	80 93 8c 02 	sts	0x028C, r24	; 0x80028c <machine_ms_timer>
			machine_s_timer = machine_s_timer_temp;
    1e2c:	80 91 b8 02 	lds	r24, 0x02B8	; 0x8002b8 <machine_s_timer_temp>
    1e30:	90 91 b9 02 	lds	r25, 0x02B9	; 0x8002b9 <machine_s_timer_temp+0x1>
    1e34:	90 93 8b 02 	sts	0x028B, r25	; 0x80028b <machine_s_timer+0x1>
    1e38:	80 93 8a 02 	sts	0x028A, r24	; 0x80028a <machine_s_timer>
    1e3c:	08 95       	ret

00001e3e <main>:
}

// 메인 함수
int main(void)
{
    init_button();
    1e3e:	0e 94 66 00 	call	0xcc	; 0xcc <init_button>
	I2C_LCD_init();
    1e42:	0e 94 5c 06 	call	0xcb8	; 0xcb8 <I2C_LCD_init>
	init_fnd();
    1e46:	0e 94 25 04 	call	0x84a	; 0x84a <init_fnd>
	init_buzzer();
    1e4a:	0e 94 86 01 	call	0x30c	; 0x30c <init_buzzer>
	init_fan();
    1e4e:	0e 94 f3 01 	call	0x3e6	; 0x3e6 <init_fan>
	init_timer0();
    1e52:	6d dd       	rcall	.-1318   	; 0x192e <init_timer0>
	sei();
    1e54:	78 94       	sei
	
	
	for (;;) 
    {
		
		button_buzzer_off();
    1e56:	0e 94 92 01 	call	0x324	; 0x324 <button_buzzer_off>
		mode_select();
		LED_control();
    1e5a:	72 dd       	rcall	.-1308   	; 0x1940 <mode_select>
    1e5c:	13 dc       	rcall	.-2010   	; 0x1684 <LED_control>
		LCD_Display();
    1e5e:	0e 94 a0 06 	call	0xd40	; 0xd40 <LCD_Display>
		fan_active();
    1e62:	0e 94 0b 02 	call	0x416	; 0x416 <fan_active>
		complete_buzzer();
    1e66:	0e 94 b5 01 	call	0x36a	; 0x36a <complete_buzzer>
    1e6a:	f5 cf       	rjmp	.-22     	; 0x1e56 <main+0x18>

00001e6c <__divmodhi4>:
    1e6c:	97 fb       	bst	r25, 7
    1e6e:	07 2e       	mov	r0, r23
    1e70:	16 f4       	brtc	.+4      	; 0x1e76 <__divmodhi4+0xa>
    1e72:	00 94       	com	r0
    1e74:	06 d0       	rcall	.+12     	; 0x1e82 <__divmodhi4_neg1>
    1e76:	77 fd       	sbrc	r23, 7
    1e78:	08 d0       	rcall	.+16     	; 0x1e8a <__divmodhi4_neg2>
    1e7a:	0b d0       	rcall	.+22     	; 0x1e92 <__udivmodhi4>
    1e7c:	07 fc       	sbrc	r0, 7
    1e7e:	05 d0       	rcall	.+10     	; 0x1e8a <__divmodhi4_neg2>
    1e80:	3e f4       	brtc	.+14     	; 0x1e90 <__divmodhi4_exit>

00001e82 <__divmodhi4_neg1>:
    1e82:	90 95       	com	r25
    1e84:	81 95       	neg	r24
    1e86:	9f 4f       	sbci	r25, 0xFF	; 255
    1e88:	08 95       	ret

00001e8a <__divmodhi4_neg2>:
    1e8a:	70 95       	com	r23
    1e8c:	61 95       	neg	r22
    1e8e:	7f 4f       	sbci	r23, 0xFF	; 255

00001e90 <__divmodhi4_exit>:
    1e90:	08 95       	ret

00001e92 <__udivmodhi4>:
    1e92:	aa 1b       	sub	r26, r26
    1e94:	bb 1b       	sub	r27, r27
    1e96:	51 e1       	ldi	r21, 0x11	; 17
    1e98:	07 c0       	rjmp	.+14     	; 0x1ea8 <__udivmodhi4_ep>

00001e9a <__udivmodhi4_loop>:
    1e9a:	aa 1f       	adc	r26, r26
    1e9c:	bb 1f       	adc	r27, r27
    1e9e:	a6 17       	cp	r26, r22
    1ea0:	b7 07       	cpc	r27, r23
    1ea2:	10 f0       	brcs	.+4      	; 0x1ea8 <__udivmodhi4_ep>
    1ea4:	a6 1b       	sub	r26, r22
    1ea6:	b7 0b       	sbc	r27, r23

00001ea8 <__udivmodhi4_ep>:
    1ea8:	88 1f       	adc	r24, r24
    1eaa:	99 1f       	adc	r25, r25
    1eac:	5a 95       	dec	r21
    1eae:	a9 f7       	brne	.-22     	; 0x1e9a <__udivmodhi4_loop>
    1eb0:	80 95       	com	r24
    1eb2:	90 95       	com	r25
    1eb4:	bc 01       	movw	r22, r24
    1eb6:	cd 01       	movw	r24, r26
    1eb8:	08 95       	ret

00001eba <sprintf>:
    1eba:	0f 93       	push	r16
    1ebc:	1f 93       	push	r17
    1ebe:	cf 93       	push	r28
    1ec0:	df 93       	push	r29
    1ec2:	cd b7       	in	r28, 0x3d	; 61
    1ec4:	de b7       	in	r29, 0x3e	; 62
    1ec6:	2e 97       	sbiw	r28, 0x0e	; 14
    1ec8:	0f b6       	in	r0, 0x3f	; 63
    1eca:	f8 94       	cli
    1ecc:	de bf       	out	0x3e, r29	; 62
    1ece:	0f be       	out	0x3f, r0	; 63
    1ed0:	cd bf       	out	0x3d, r28	; 61
    1ed2:	0d 89       	ldd	r16, Y+21	; 0x15
    1ed4:	1e 89       	ldd	r17, Y+22	; 0x16
    1ed6:	86 e0       	ldi	r24, 0x06	; 6
    1ed8:	8c 83       	std	Y+4, r24	; 0x04
    1eda:	1a 83       	std	Y+2, r17	; 0x02
    1edc:	09 83       	std	Y+1, r16	; 0x01
    1ede:	8f ef       	ldi	r24, 0xFF	; 255
    1ee0:	9f e7       	ldi	r25, 0x7F	; 127
    1ee2:	9e 83       	std	Y+6, r25	; 0x06
    1ee4:	8d 83       	std	Y+5, r24	; 0x05
    1ee6:	ae 01       	movw	r20, r28
    1ee8:	47 5e       	subi	r20, 0xE7	; 231
    1eea:	5f 4f       	sbci	r21, 0xFF	; 255
    1eec:	6f 89       	ldd	r22, Y+23	; 0x17
    1eee:	78 8d       	ldd	r23, Y+24	; 0x18
    1ef0:	ce 01       	movw	r24, r28
    1ef2:	01 96       	adiw	r24, 0x01	; 1
    1ef4:	10 d0       	rcall	.+32     	; 0x1f16 <vfprintf>
    1ef6:	ef 81       	ldd	r30, Y+7	; 0x07
    1ef8:	f8 85       	ldd	r31, Y+8	; 0x08
    1efa:	e0 0f       	add	r30, r16
    1efc:	f1 1f       	adc	r31, r17
    1efe:	10 82       	st	Z, r1
    1f00:	2e 96       	adiw	r28, 0x0e	; 14
    1f02:	0f b6       	in	r0, 0x3f	; 63
    1f04:	f8 94       	cli
    1f06:	de bf       	out	0x3e, r29	; 62
    1f08:	0f be       	out	0x3f, r0	; 63
    1f0a:	cd bf       	out	0x3d, r28	; 61
    1f0c:	df 91       	pop	r29
    1f0e:	cf 91       	pop	r28
    1f10:	1f 91       	pop	r17
    1f12:	0f 91       	pop	r16
    1f14:	08 95       	ret

00001f16 <vfprintf>:
    1f16:	2f 92       	push	r2
    1f18:	3f 92       	push	r3
    1f1a:	4f 92       	push	r4
    1f1c:	5f 92       	push	r5
    1f1e:	6f 92       	push	r6
    1f20:	7f 92       	push	r7
    1f22:	8f 92       	push	r8
    1f24:	9f 92       	push	r9
    1f26:	af 92       	push	r10
    1f28:	bf 92       	push	r11
    1f2a:	cf 92       	push	r12
    1f2c:	df 92       	push	r13
    1f2e:	ef 92       	push	r14
    1f30:	ff 92       	push	r15
    1f32:	0f 93       	push	r16
    1f34:	1f 93       	push	r17
    1f36:	cf 93       	push	r28
    1f38:	df 93       	push	r29
    1f3a:	cd b7       	in	r28, 0x3d	; 61
    1f3c:	de b7       	in	r29, 0x3e	; 62
    1f3e:	2b 97       	sbiw	r28, 0x0b	; 11
    1f40:	0f b6       	in	r0, 0x3f	; 63
    1f42:	f8 94       	cli
    1f44:	de bf       	out	0x3e, r29	; 62
    1f46:	0f be       	out	0x3f, r0	; 63
    1f48:	cd bf       	out	0x3d, r28	; 61
    1f4a:	6c 01       	movw	r12, r24
    1f4c:	7b 01       	movw	r14, r22
    1f4e:	8a 01       	movw	r16, r20
    1f50:	fc 01       	movw	r30, r24
    1f52:	17 82       	std	Z+7, r1	; 0x07
    1f54:	16 82       	std	Z+6, r1	; 0x06
    1f56:	83 81       	ldd	r24, Z+3	; 0x03
    1f58:	81 ff       	sbrs	r24, 1
    1f5a:	bf c1       	rjmp	.+894    	; 0x22da <vfprintf+0x3c4>
    1f5c:	ce 01       	movw	r24, r28
    1f5e:	01 96       	adiw	r24, 0x01	; 1
    1f60:	3c 01       	movw	r6, r24
    1f62:	f6 01       	movw	r30, r12
    1f64:	93 81       	ldd	r25, Z+3	; 0x03
    1f66:	f7 01       	movw	r30, r14
    1f68:	93 fd       	sbrc	r25, 3
    1f6a:	85 91       	lpm	r24, Z+
    1f6c:	93 ff       	sbrs	r25, 3
    1f6e:	81 91       	ld	r24, Z+
    1f70:	7f 01       	movw	r14, r30
    1f72:	88 23       	and	r24, r24
    1f74:	09 f4       	brne	.+2      	; 0x1f78 <vfprintf+0x62>
    1f76:	ad c1       	rjmp	.+858    	; 0x22d2 <vfprintf+0x3bc>
    1f78:	85 32       	cpi	r24, 0x25	; 37
    1f7a:	39 f4       	brne	.+14     	; 0x1f8a <vfprintf+0x74>
    1f7c:	93 fd       	sbrc	r25, 3
    1f7e:	85 91       	lpm	r24, Z+
    1f80:	93 ff       	sbrs	r25, 3
    1f82:	81 91       	ld	r24, Z+
    1f84:	7f 01       	movw	r14, r30
    1f86:	85 32       	cpi	r24, 0x25	; 37
    1f88:	21 f4       	brne	.+8      	; 0x1f92 <vfprintf+0x7c>
    1f8a:	b6 01       	movw	r22, r12
    1f8c:	90 e0       	ldi	r25, 0x00	; 0
    1f8e:	d6 d1       	rcall	.+940    	; 0x233c <fputc>
    1f90:	e8 cf       	rjmp	.-48     	; 0x1f62 <vfprintf+0x4c>
    1f92:	91 2c       	mov	r9, r1
    1f94:	21 2c       	mov	r2, r1
    1f96:	31 2c       	mov	r3, r1
    1f98:	ff e1       	ldi	r31, 0x1F	; 31
    1f9a:	f3 15       	cp	r31, r3
    1f9c:	d8 f0       	brcs	.+54     	; 0x1fd4 <vfprintf+0xbe>
    1f9e:	8b 32       	cpi	r24, 0x2B	; 43
    1fa0:	79 f0       	breq	.+30     	; 0x1fc0 <vfprintf+0xaa>
    1fa2:	38 f4       	brcc	.+14     	; 0x1fb2 <vfprintf+0x9c>
    1fa4:	80 32       	cpi	r24, 0x20	; 32
    1fa6:	79 f0       	breq	.+30     	; 0x1fc6 <vfprintf+0xb0>
    1fa8:	83 32       	cpi	r24, 0x23	; 35
    1faa:	a1 f4       	brne	.+40     	; 0x1fd4 <vfprintf+0xbe>
    1fac:	23 2d       	mov	r18, r3
    1fae:	20 61       	ori	r18, 0x10	; 16
    1fb0:	1d c0       	rjmp	.+58     	; 0x1fec <vfprintf+0xd6>
    1fb2:	8d 32       	cpi	r24, 0x2D	; 45
    1fb4:	61 f0       	breq	.+24     	; 0x1fce <vfprintf+0xb8>
    1fb6:	80 33       	cpi	r24, 0x30	; 48
    1fb8:	69 f4       	brne	.+26     	; 0x1fd4 <vfprintf+0xbe>
    1fba:	23 2d       	mov	r18, r3
    1fbc:	21 60       	ori	r18, 0x01	; 1
    1fbe:	16 c0       	rjmp	.+44     	; 0x1fec <vfprintf+0xd6>
    1fc0:	83 2d       	mov	r24, r3
    1fc2:	82 60       	ori	r24, 0x02	; 2
    1fc4:	38 2e       	mov	r3, r24
    1fc6:	e3 2d       	mov	r30, r3
    1fc8:	e4 60       	ori	r30, 0x04	; 4
    1fca:	3e 2e       	mov	r3, r30
    1fcc:	2a c0       	rjmp	.+84     	; 0x2022 <vfprintf+0x10c>
    1fce:	f3 2d       	mov	r31, r3
    1fd0:	f8 60       	ori	r31, 0x08	; 8
    1fd2:	1d c0       	rjmp	.+58     	; 0x200e <vfprintf+0xf8>
    1fd4:	37 fc       	sbrc	r3, 7
    1fd6:	2d c0       	rjmp	.+90     	; 0x2032 <vfprintf+0x11c>
    1fd8:	20 ed       	ldi	r18, 0xD0	; 208
    1fda:	28 0f       	add	r18, r24
    1fdc:	2a 30       	cpi	r18, 0x0A	; 10
    1fde:	40 f0       	brcs	.+16     	; 0x1ff0 <vfprintf+0xda>
    1fe0:	8e 32       	cpi	r24, 0x2E	; 46
    1fe2:	b9 f4       	brne	.+46     	; 0x2012 <vfprintf+0xfc>
    1fe4:	36 fc       	sbrc	r3, 6
    1fe6:	75 c1       	rjmp	.+746    	; 0x22d2 <vfprintf+0x3bc>
    1fe8:	23 2d       	mov	r18, r3
    1fea:	20 64       	ori	r18, 0x40	; 64
    1fec:	32 2e       	mov	r3, r18
    1fee:	19 c0       	rjmp	.+50     	; 0x2022 <vfprintf+0x10c>
    1ff0:	36 fe       	sbrs	r3, 6
    1ff2:	06 c0       	rjmp	.+12     	; 0x2000 <vfprintf+0xea>
    1ff4:	8a e0       	ldi	r24, 0x0A	; 10
    1ff6:	98 9e       	mul	r9, r24
    1ff8:	20 0d       	add	r18, r0
    1ffa:	11 24       	eor	r1, r1
    1ffc:	92 2e       	mov	r9, r18
    1ffe:	11 c0       	rjmp	.+34     	; 0x2022 <vfprintf+0x10c>
    2000:	ea e0       	ldi	r30, 0x0A	; 10
    2002:	2e 9e       	mul	r2, r30
    2004:	20 0d       	add	r18, r0
    2006:	11 24       	eor	r1, r1
    2008:	22 2e       	mov	r2, r18
    200a:	f3 2d       	mov	r31, r3
    200c:	f0 62       	ori	r31, 0x20	; 32
    200e:	3f 2e       	mov	r3, r31
    2010:	08 c0       	rjmp	.+16     	; 0x2022 <vfprintf+0x10c>
    2012:	8c 36       	cpi	r24, 0x6C	; 108
    2014:	21 f4       	brne	.+8      	; 0x201e <vfprintf+0x108>
    2016:	83 2d       	mov	r24, r3
    2018:	80 68       	ori	r24, 0x80	; 128
    201a:	38 2e       	mov	r3, r24
    201c:	02 c0       	rjmp	.+4      	; 0x2022 <vfprintf+0x10c>
    201e:	88 36       	cpi	r24, 0x68	; 104
    2020:	41 f4       	brne	.+16     	; 0x2032 <vfprintf+0x11c>
    2022:	f7 01       	movw	r30, r14
    2024:	93 fd       	sbrc	r25, 3
    2026:	85 91       	lpm	r24, Z+
    2028:	93 ff       	sbrs	r25, 3
    202a:	81 91       	ld	r24, Z+
    202c:	7f 01       	movw	r14, r30
    202e:	81 11       	cpse	r24, r1
    2030:	b3 cf       	rjmp	.-154    	; 0x1f98 <vfprintf+0x82>
    2032:	98 2f       	mov	r25, r24
    2034:	9f 7d       	andi	r25, 0xDF	; 223
    2036:	95 54       	subi	r25, 0x45	; 69
    2038:	93 30       	cpi	r25, 0x03	; 3
    203a:	28 f4       	brcc	.+10     	; 0x2046 <vfprintf+0x130>
    203c:	0c 5f       	subi	r16, 0xFC	; 252
    203e:	1f 4f       	sbci	r17, 0xFF	; 255
    2040:	9f e3       	ldi	r25, 0x3F	; 63
    2042:	99 83       	std	Y+1, r25	; 0x01
    2044:	0d c0       	rjmp	.+26     	; 0x2060 <vfprintf+0x14a>
    2046:	83 36       	cpi	r24, 0x63	; 99
    2048:	31 f0       	breq	.+12     	; 0x2056 <vfprintf+0x140>
    204a:	83 37       	cpi	r24, 0x73	; 115
    204c:	71 f0       	breq	.+28     	; 0x206a <vfprintf+0x154>
    204e:	83 35       	cpi	r24, 0x53	; 83
    2050:	09 f0       	breq	.+2      	; 0x2054 <vfprintf+0x13e>
    2052:	55 c0       	rjmp	.+170    	; 0x20fe <vfprintf+0x1e8>
    2054:	20 c0       	rjmp	.+64     	; 0x2096 <vfprintf+0x180>
    2056:	f8 01       	movw	r30, r16
    2058:	80 81       	ld	r24, Z
    205a:	89 83       	std	Y+1, r24	; 0x01
    205c:	0e 5f       	subi	r16, 0xFE	; 254
    205e:	1f 4f       	sbci	r17, 0xFF	; 255
    2060:	88 24       	eor	r8, r8
    2062:	83 94       	inc	r8
    2064:	91 2c       	mov	r9, r1
    2066:	53 01       	movw	r10, r6
    2068:	12 c0       	rjmp	.+36     	; 0x208e <vfprintf+0x178>
    206a:	28 01       	movw	r4, r16
    206c:	f2 e0       	ldi	r31, 0x02	; 2
    206e:	4f 0e       	add	r4, r31
    2070:	51 1c       	adc	r5, r1
    2072:	f8 01       	movw	r30, r16
    2074:	a0 80       	ld	r10, Z
    2076:	b1 80       	ldd	r11, Z+1	; 0x01
    2078:	36 fe       	sbrs	r3, 6
    207a:	03 c0       	rjmp	.+6      	; 0x2082 <vfprintf+0x16c>
    207c:	69 2d       	mov	r22, r9
    207e:	70 e0       	ldi	r23, 0x00	; 0
    2080:	02 c0       	rjmp	.+4      	; 0x2086 <vfprintf+0x170>
    2082:	6f ef       	ldi	r22, 0xFF	; 255
    2084:	7f ef       	ldi	r23, 0xFF	; 255
    2086:	c5 01       	movw	r24, r10
    2088:	4e d1       	rcall	.+668    	; 0x2326 <strnlen>
    208a:	4c 01       	movw	r8, r24
    208c:	82 01       	movw	r16, r4
    208e:	f3 2d       	mov	r31, r3
    2090:	ff 77       	andi	r31, 0x7F	; 127
    2092:	3f 2e       	mov	r3, r31
    2094:	15 c0       	rjmp	.+42     	; 0x20c0 <vfprintf+0x1aa>
    2096:	28 01       	movw	r4, r16
    2098:	22 e0       	ldi	r18, 0x02	; 2
    209a:	42 0e       	add	r4, r18
    209c:	51 1c       	adc	r5, r1
    209e:	f8 01       	movw	r30, r16
    20a0:	a0 80       	ld	r10, Z
    20a2:	b1 80       	ldd	r11, Z+1	; 0x01
    20a4:	36 fe       	sbrs	r3, 6
    20a6:	03 c0       	rjmp	.+6      	; 0x20ae <vfprintf+0x198>
    20a8:	69 2d       	mov	r22, r9
    20aa:	70 e0       	ldi	r23, 0x00	; 0
    20ac:	02 c0       	rjmp	.+4      	; 0x20b2 <vfprintf+0x19c>
    20ae:	6f ef       	ldi	r22, 0xFF	; 255
    20b0:	7f ef       	ldi	r23, 0xFF	; 255
    20b2:	c5 01       	movw	r24, r10
    20b4:	2d d1       	rcall	.+602    	; 0x2310 <strnlen_P>
    20b6:	4c 01       	movw	r8, r24
    20b8:	f3 2d       	mov	r31, r3
    20ba:	f0 68       	ori	r31, 0x80	; 128
    20bc:	3f 2e       	mov	r3, r31
    20be:	82 01       	movw	r16, r4
    20c0:	33 fc       	sbrc	r3, 3
    20c2:	19 c0       	rjmp	.+50     	; 0x20f6 <vfprintf+0x1e0>
    20c4:	82 2d       	mov	r24, r2
    20c6:	90 e0       	ldi	r25, 0x00	; 0
    20c8:	88 16       	cp	r8, r24
    20ca:	99 06       	cpc	r9, r25
    20cc:	a0 f4       	brcc	.+40     	; 0x20f6 <vfprintf+0x1e0>
    20ce:	b6 01       	movw	r22, r12
    20d0:	80 e2       	ldi	r24, 0x20	; 32
    20d2:	90 e0       	ldi	r25, 0x00	; 0
    20d4:	33 d1       	rcall	.+614    	; 0x233c <fputc>
    20d6:	2a 94       	dec	r2
    20d8:	f5 cf       	rjmp	.-22     	; 0x20c4 <vfprintf+0x1ae>
    20da:	f5 01       	movw	r30, r10
    20dc:	37 fc       	sbrc	r3, 7
    20de:	85 91       	lpm	r24, Z+
    20e0:	37 fe       	sbrs	r3, 7
    20e2:	81 91       	ld	r24, Z+
    20e4:	5f 01       	movw	r10, r30
    20e6:	b6 01       	movw	r22, r12
    20e8:	90 e0       	ldi	r25, 0x00	; 0
    20ea:	28 d1       	rcall	.+592    	; 0x233c <fputc>
    20ec:	21 10       	cpse	r2, r1
    20ee:	2a 94       	dec	r2
    20f0:	21 e0       	ldi	r18, 0x01	; 1
    20f2:	82 1a       	sub	r8, r18
    20f4:	91 08       	sbc	r9, r1
    20f6:	81 14       	cp	r8, r1
    20f8:	91 04       	cpc	r9, r1
    20fa:	79 f7       	brne	.-34     	; 0x20da <vfprintf+0x1c4>
    20fc:	e1 c0       	rjmp	.+450    	; 0x22c0 <vfprintf+0x3aa>
    20fe:	84 36       	cpi	r24, 0x64	; 100
    2100:	11 f0       	breq	.+4      	; 0x2106 <vfprintf+0x1f0>
    2102:	89 36       	cpi	r24, 0x69	; 105
    2104:	39 f5       	brne	.+78     	; 0x2154 <vfprintf+0x23e>
    2106:	f8 01       	movw	r30, r16
    2108:	37 fe       	sbrs	r3, 7
    210a:	07 c0       	rjmp	.+14     	; 0x211a <vfprintf+0x204>
    210c:	60 81       	ld	r22, Z
    210e:	71 81       	ldd	r23, Z+1	; 0x01
    2110:	82 81       	ldd	r24, Z+2	; 0x02
    2112:	93 81       	ldd	r25, Z+3	; 0x03
    2114:	0c 5f       	subi	r16, 0xFC	; 252
    2116:	1f 4f       	sbci	r17, 0xFF	; 255
    2118:	08 c0       	rjmp	.+16     	; 0x212a <vfprintf+0x214>
    211a:	60 81       	ld	r22, Z
    211c:	71 81       	ldd	r23, Z+1	; 0x01
    211e:	07 2e       	mov	r0, r23
    2120:	00 0c       	add	r0, r0
    2122:	88 0b       	sbc	r24, r24
    2124:	99 0b       	sbc	r25, r25
    2126:	0e 5f       	subi	r16, 0xFE	; 254
    2128:	1f 4f       	sbci	r17, 0xFF	; 255
    212a:	f3 2d       	mov	r31, r3
    212c:	ff 76       	andi	r31, 0x6F	; 111
    212e:	3f 2e       	mov	r3, r31
    2130:	97 ff       	sbrs	r25, 7
    2132:	09 c0       	rjmp	.+18     	; 0x2146 <vfprintf+0x230>
    2134:	90 95       	com	r25
    2136:	80 95       	com	r24
    2138:	70 95       	com	r23
    213a:	61 95       	neg	r22
    213c:	7f 4f       	sbci	r23, 0xFF	; 255
    213e:	8f 4f       	sbci	r24, 0xFF	; 255
    2140:	9f 4f       	sbci	r25, 0xFF	; 255
    2142:	f0 68       	ori	r31, 0x80	; 128
    2144:	3f 2e       	mov	r3, r31
    2146:	2a e0       	ldi	r18, 0x0A	; 10
    2148:	30 e0       	ldi	r19, 0x00	; 0
    214a:	a3 01       	movw	r20, r6
    214c:	33 d1       	rcall	.+614    	; 0x23b4 <__ultoa_invert>
    214e:	88 2e       	mov	r8, r24
    2150:	86 18       	sub	r8, r6
    2152:	44 c0       	rjmp	.+136    	; 0x21dc <vfprintf+0x2c6>
    2154:	85 37       	cpi	r24, 0x75	; 117
    2156:	31 f4       	brne	.+12     	; 0x2164 <vfprintf+0x24e>
    2158:	23 2d       	mov	r18, r3
    215a:	2f 7e       	andi	r18, 0xEF	; 239
    215c:	b2 2e       	mov	r11, r18
    215e:	2a e0       	ldi	r18, 0x0A	; 10
    2160:	30 e0       	ldi	r19, 0x00	; 0
    2162:	25 c0       	rjmp	.+74     	; 0x21ae <vfprintf+0x298>
    2164:	93 2d       	mov	r25, r3
    2166:	99 7f       	andi	r25, 0xF9	; 249
    2168:	b9 2e       	mov	r11, r25
    216a:	8f 36       	cpi	r24, 0x6F	; 111
    216c:	c1 f0       	breq	.+48     	; 0x219e <vfprintf+0x288>
    216e:	18 f4       	brcc	.+6      	; 0x2176 <vfprintf+0x260>
    2170:	88 35       	cpi	r24, 0x58	; 88
    2172:	79 f0       	breq	.+30     	; 0x2192 <vfprintf+0x27c>
    2174:	ae c0       	rjmp	.+348    	; 0x22d2 <vfprintf+0x3bc>
    2176:	80 37       	cpi	r24, 0x70	; 112
    2178:	19 f0       	breq	.+6      	; 0x2180 <vfprintf+0x26a>
    217a:	88 37       	cpi	r24, 0x78	; 120
    217c:	21 f0       	breq	.+8      	; 0x2186 <vfprintf+0x270>
    217e:	a9 c0       	rjmp	.+338    	; 0x22d2 <vfprintf+0x3bc>
    2180:	e9 2f       	mov	r30, r25
    2182:	e0 61       	ori	r30, 0x10	; 16
    2184:	be 2e       	mov	r11, r30
    2186:	b4 fe       	sbrs	r11, 4
    2188:	0d c0       	rjmp	.+26     	; 0x21a4 <vfprintf+0x28e>
    218a:	fb 2d       	mov	r31, r11
    218c:	f4 60       	ori	r31, 0x04	; 4
    218e:	bf 2e       	mov	r11, r31
    2190:	09 c0       	rjmp	.+18     	; 0x21a4 <vfprintf+0x28e>
    2192:	34 fe       	sbrs	r3, 4
    2194:	0a c0       	rjmp	.+20     	; 0x21aa <vfprintf+0x294>
    2196:	29 2f       	mov	r18, r25
    2198:	26 60       	ori	r18, 0x06	; 6
    219a:	b2 2e       	mov	r11, r18
    219c:	06 c0       	rjmp	.+12     	; 0x21aa <vfprintf+0x294>
    219e:	28 e0       	ldi	r18, 0x08	; 8
    21a0:	30 e0       	ldi	r19, 0x00	; 0
    21a2:	05 c0       	rjmp	.+10     	; 0x21ae <vfprintf+0x298>
    21a4:	20 e1       	ldi	r18, 0x10	; 16
    21a6:	30 e0       	ldi	r19, 0x00	; 0
    21a8:	02 c0       	rjmp	.+4      	; 0x21ae <vfprintf+0x298>
    21aa:	20 e1       	ldi	r18, 0x10	; 16
    21ac:	32 e0       	ldi	r19, 0x02	; 2
    21ae:	f8 01       	movw	r30, r16
    21b0:	b7 fe       	sbrs	r11, 7
    21b2:	07 c0       	rjmp	.+14     	; 0x21c2 <vfprintf+0x2ac>
    21b4:	60 81       	ld	r22, Z
    21b6:	71 81       	ldd	r23, Z+1	; 0x01
    21b8:	82 81       	ldd	r24, Z+2	; 0x02
    21ba:	93 81       	ldd	r25, Z+3	; 0x03
    21bc:	0c 5f       	subi	r16, 0xFC	; 252
    21be:	1f 4f       	sbci	r17, 0xFF	; 255
    21c0:	06 c0       	rjmp	.+12     	; 0x21ce <vfprintf+0x2b8>
    21c2:	60 81       	ld	r22, Z
    21c4:	71 81       	ldd	r23, Z+1	; 0x01
    21c6:	80 e0       	ldi	r24, 0x00	; 0
    21c8:	90 e0       	ldi	r25, 0x00	; 0
    21ca:	0e 5f       	subi	r16, 0xFE	; 254
    21cc:	1f 4f       	sbci	r17, 0xFF	; 255
    21ce:	a3 01       	movw	r20, r6
    21d0:	f1 d0       	rcall	.+482    	; 0x23b4 <__ultoa_invert>
    21d2:	88 2e       	mov	r8, r24
    21d4:	86 18       	sub	r8, r6
    21d6:	fb 2d       	mov	r31, r11
    21d8:	ff 77       	andi	r31, 0x7F	; 127
    21da:	3f 2e       	mov	r3, r31
    21dc:	36 fe       	sbrs	r3, 6
    21de:	0d c0       	rjmp	.+26     	; 0x21fa <vfprintf+0x2e4>
    21e0:	23 2d       	mov	r18, r3
    21e2:	2e 7f       	andi	r18, 0xFE	; 254
    21e4:	a2 2e       	mov	r10, r18
    21e6:	89 14       	cp	r8, r9
    21e8:	58 f4       	brcc	.+22     	; 0x2200 <vfprintf+0x2ea>
    21ea:	34 fe       	sbrs	r3, 4
    21ec:	0b c0       	rjmp	.+22     	; 0x2204 <vfprintf+0x2ee>
    21ee:	32 fc       	sbrc	r3, 2
    21f0:	09 c0       	rjmp	.+18     	; 0x2204 <vfprintf+0x2ee>
    21f2:	83 2d       	mov	r24, r3
    21f4:	8e 7e       	andi	r24, 0xEE	; 238
    21f6:	a8 2e       	mov	r10, r24
    21f8:	05 c0       	rjmp	.+10     	; 0x2204 <vfprintf+0x2ee>
    21fa:	b8 2c       	mov	r11, r8
    21fc:	a3 2c       	mov	r10, r3
    21fe:	03 c0       	rjmp	.+6      	; 0x2206 <vfprintf+0x2f0>
    2200:	b8 2c       	mov	r11, r8
    2202:	01 c0       	rjmp	.+2      	; 0x2206 <vfprintf+0x2f0>
    2204:	b9 2c       	mov	r11, r9
    2206:	a4 fe       	sbrs	r10, 4
    2208:	0f c0       	rjmp	.+30     	; 0x2228 <vfprintf+0x312>
    220a:	fe 01       	movw	r30, r28
    220c:	e8 0d       	add	r30, r8
    220e:	f1 1d       	adc	r31, r1
    2210:	80 81       	ld	r24, Z
    2212:	80 33       	cpi	r24, 0x30	; 48
    2214:	21 f4       	brne	.+8      	; 0x221e <vfprintf+0x308>
    2216:	9a 2d       	mov	r25, r10
    2218:	99 7e       	andi	r25, 0xE9	; 233
    221a:	a9 2e       	mov	r10, r25
    221c:	09 c0       	rjmp	.+18     	; 0x2230 <vfprintf+0x31a>
    221e:	a2 fe       	sbrs	r10, 2
    2220:	06 c0       	rjmp	.+12     	; 0x222e <vfprintf+0x318>
    2222:	b3 94       	inc	r11
    2224:	b3 94       	inc	r11
    2226:	04 c0       	rjmp	.+8      	; 0x2230 <vfprintf+0x31a>
    2228:	8a 2d       	mov	r24, r10
    222a:	86 78       	andi	r24, 0x86	; 134
    222c:	09 f0       	breq	.+2      	; 0x2230 <vfprintf+0x31a>
    222e:	b3 94       	inc	r11
    2230:	a3 fc       	sbrc	r10, 3
    2232:	10 c0       	rjmp	.+32     	; 0x2254 <vfprintf+0x33e>
    2234:	a0 fe       	sbrs	r10, 0
    2236:	06 c0       	rjmp	.+12     	; 0x2244 <vfprintf+0x32e>
    2238:	b2 14       	cp	r11, r2
    223a:	80 f4       	brcc	.+32     	; 0x225c <vfprintf+0x346>
    223c:	28 0c       	add	r2, r8
    223e:	92 2c       	mov	r9, r2
    2240:	9b 18       	sub	r9, r11
    2242:	0d c0       	rjmp	.+26     	; 0x225e <vfprintf+0x348>
    2244:	b2 14       	cp	r11, r2
    2246:	58 f4       	brcc	.+22     	; 0x225e <vfprintf+0x348>
    2248:	b6 01       	movw	r22, r12
    224a:	80 e2       	ldi	r24, 0x20	; 32
    224c:	90 e0       	ldi	r25, 0x00	; 0
    224e:	76 d0       	rcall	.+236    	; 0x233c <fputc>
    2250:	b3 94       	inc	r11
    2252:	f8 cf       	rjmp	.-16     	; 0x2244 <vfprintf+0x32e>
    2254:	b2 14       	cp	r11, r2
    2256:	18 f4       	brcc	.+6      	; 0x225e <vfprintf+0x348>
    2258:	2b 18       	sub	r2, r11
    225a:	02 c0       	rjmp	.+4      	; 0x2260 <vfprintf+0x34a>
    225c:	98 2c       	mov	r9, r8
    225e:	21 2c       	mov	r2, r1
    2260:	a4 fe       	sbrs	r10, 4
    2262:	0f c0       	rjmp	.+30     	; 0x2282 <vfprintf+0x36c>
    2264:	b6 01       	movw	r22, r12
    2266:	80 e3       	ldi	r24, 0x30	; 48
    2268:	90 e0       	ldi	r25, 0x00	; 0
    226a:	68 d0       	rcall	.+208    	; 0x233c <fputc>
    226c:	a2 fe       	sbrs	r10, 2
    226e:	16 c0       	rjmp	.+44     	; 0x229c <vfprintf+0x386>
    2270:	a1 fc       	sbrc	r10, 1
    2272:	03 c0       	rjmp	.+6      	; 0x227a <vfprintf+0x364>
    2274:	88 e7       	ldi	r24, 0x78	; 120
    2276:	90 e0       	ldi	r25, 0x00	; 0
    2278:	02 c0       	rjmp	.+4      	; 0x227e <vfprintf+0x368>
    227a:	88 e5       	ldi	r24, 0x58	; 88
    227c:	90 e0       	ldi	r25, 0x00	; 0
    227e:	b6 01       	movw	r22, r12
    2280:	0c c0       	rjmp	.+24     	; 0x229a <vfprintf+0x384>
    2282:	8a 2d       	mov	r24, r10
    2284:	86 78       	andi	r24, 0x86	; 134
    2286:	51 f0       	breq	.+20     	; 0x229c <vfprintf+0x386>
    2288:	a1 fe       	sbrs	r10, 1
    228a:	02 c0       	rjmp	.+4      	; 0x2290 <vfprintf+0x37a>
    228c:	8b e2       	ldi	r24, 0x2B	; 43
    228e:	01 c0       	rjmp	.+2      	; 0x2292 <vfprintf+0x37c>
    2290:	80 e2       	ldi	r24, 0x20	; 32
    2292:	a7 fc       	sbrc	r10, 7
    2294:	8d e2       	ldi	r24, 0x2D	; 45
    2296:	b6 01       	movw	r22, r12
    2298:	90 e0       	ldi	r25, 0x00	; 0
    229a:	50 d0       	rcall	.+160    	; 0x233c <fputc>
    229c:	89 14       	cp	r8, r9
    229e:	30 f4       	brcc	.+12     	; 0x22ac <vfprintf+0x396>
    22a0:	b6 01       	movw	r22, r12
    22a2:	80 e3       	ldi	r24, 0x30	; 48
    22a4:	90 e0       	ldi	r25, 0x00	; 0
    22a6:	4a d0       	rcall	.+148    	; 0x233c <fputc>
    22a8:	9a 94       	dec	r9
    22aa:	f8 cf       	rjmp	.-16     	; 0x229c <vfprintf+0x386>
    22ac:	8a 94       	dec	r8
    22ae:	f3 01       	movw	r30, r6
    22b0:	e8 0d       	add	r30, r8
    22b2:	f1 1d       	adc	r31, r1
    22b4:	80 81       	ld	r24, Z
    22b6:	b6 01       	movw	r22, r12
    22b8:	90 e0       	ldi	r25, 0x00	; 0
    22ba:	40 d0       	rcall	.+128    	; 0x233c <fputc>
    22bc:	81 10       	cpse	r8, r1
    22be:	f6 cf       	rjmp	.-20     	; 0x22ac <vfprintf+0x396>
    22c0:	22 20       	and	r2, r2
    22c2:	09 f4       	brne	.+2      	; 0x22c6 <vfprintf+0x3b0>
    22c4:	4e ce       	rjmp	.-868    	; 0x1f62 <vfprintf+0x4c>
    22c6:	b6 01       	movw	r22, r12
    22c8:	80 e2       	ldi	r24, 0x20	; 32
    22ca:	90 e0       	ldi	r25, 0x00	; 0
    22cc:	37 d0       	rcall	.+110    	; 0x233c <fputc>
    22ce:	2a 94       	dec	r2
    22d0:	f7 cf       	rjmp	.-18     	; 0x22c0 <vfprintf+0x3aa>
    22d2:	f6 01       	movw	r30, r12
    22d4:	86 81       	ldd	r24, Z+6	; 0x06
    22d6:	97 81       	ldd	r25, Z+7	; 0x07
    22d8:	02 c0       	rjmp	.+4      	; 0x22de <vfprintf+0x3c8>
    22da:	8f ef       	ldi	r24, 0xFF	; 255
    22dc:	9f ef       	ldi	r25, 0xFF	; 255
    22de:	2b 96       	adiw	r28, 0x0b	; 11
    22e0:	0f b6       	in	r0, 0x3f	; 63
    22e2:	f8 94       	cli
    22e4:	de bf       	out	0x3e, r29	; 62
    22e6:	0f be       	out	0x3f, r0	; 63
    22e8:	cd bf       	out	0x3d, r28	; 61
    22ea:	df 91       	pop	r29
    22ec:	cf 91       	pop	r28
    22ee:	1f 91       	pop	r17
    22f0:	0f 91       	pop	r16
    22f2:	ff 90       	pop	r15
    22f4:	ef 90       	pop	r14
    22f6:	df 90       	pop	r13
    22f8:	cf 90       	pop	r12
    22fa:	bf 90       	pop	r11
    22fc:	af 90       	pop	r10
    22fe:	9f 90       	pop	r9
    2300:	8f 90       	pop	r8
    2302:	7f 90       	pop	r7
    2304:	6f 90       	pop	r6
    2306:	5f 90       	pop	r5
    2308:	4f 90       	pop	r4
    230a:	3f 90       	pop	r3
    230c:	2f 90       	pop	r2
    230e:	08 95       	ret

00002310 <strnlen_P>:
    2310:	fc 01       	movw	r30, r24
    2312:	05 90       	lpm	r0, Z+
    2314:	61 50       	subi	r22, 0x01	; 1
    2316:	70 40       	sbci	r23, 0x00	; 0
    2318:	01 10       	cpse	r0, r1
    231a:	d8 f7       	brcc	.-10     	; 0x2312 <strnlen_P+0x2>
    231c:	80 95       	com	r24
    231e:	90 95       	com	r25
    2320:	8e 0f       	add	r24, r30
    2322:	9f 1f       	adc	r25, r31
    2324:	08 95       	ret

00002326 <strnlen>:
    2326:	fc 01       	movw	r30, r24
    2328:	61 50       	subi	r22, 0x01	; 1
    232a:	70 40       	sbci	r23, 0x00	; 0
    232c:	01 90       	ld	r0, Z+
    232e:	01 10       	cpse	r0, r1
    2330:	d8 f7       	brcc	.-10     	; 0x2328 <strnlen+0x2>
    2332:	80 95       	com	r24
    2334:	90 95       	com	r25
    2336:	8e 0f       	add	r24, r30
    2338:	9f 1f       	adc	r25, r31
    233a:	08 95       	ret

0000233c <fputc>:
    233c:	0f 93       	push	r16
    233e:	1f 93       	push	r17
    2340:	cf 93       	push	r28
    2342:	df 93       	push	r29
    2344:	fb 01       	movw	r30, r22
    2346:	23 81       	ldd	r18, Z+3	; 0x03
    2348:	21 fd       	sbrc	r18, 1
    234a:	03 c0       	rjmp	.+6      	; 0x2352 <fputc+0x16>
    234c:	8f ef       	ldi	r24, 0xFF	; 255
    234e:	9f ef       	ldi	r25, 0xFF	; 255
    2350:	2c c0       	rjmp	.+88     	; 0x23aa <fputc+0x6e>
    2352:	22 ff       	sbrs	r18, 2
    2354:	16 c0       	rjmp	.+44     	; 0x2382 <fputc+0x46>
    2356:	46 81       	ldd	r20, Z+6	; 0x06
    2358:	57 81       	ldd	r21, Z+7	; 0x07
    235a:	24 81       	ldd	r18, Z+4	; 0x04
    235c:	35 81       	ldd	r19, Z+5	; 0x05
    235e:	42 17       	cp	r20, r18
    2360:	53 07       	cpc	r21, r19
    2362:	44 f4       	brge	.+16     	; 0x2374 <fputc+0x38>
    2364:	a0 81       	ld	r26, Z
    2366:	b1 81       	ldd	r27, Z+1	; 0x01
    2368:	9d 01       	movw	r18, r26
    236a:	2f 5f       	subi	r18, 0xFF	; 255
    236c:	3f 4f       	sbci	r19, 0xFF	; 255
    236e:	31 83       	std	Z+1, r19	; 0x01
    2370:	20 83       	st	Z, r18
    2372:	8c 93       	st	X, r24
    2374:	26 81       	ldd	r18, Z+6	; 0x06
    2376:	37 81       	ldd	r19, Z+7	; 0x07
    2378:	2f 5f       	subi	r18, 0xFF	; 255
    237a:	3f 4f       	sbci	r19, 0xFF	; 255
    237c:	37 83       	std	Z+7, r19	; 0x07
    237e:	26 83       	std	Z+6, r18	; 0x06
    2380:	14 c0       	rjmp	.+40     	; 0x23aa <fputc+0x6e>
    2382:	8b 01       	movw	r16, r22
    2384:	ec 01       	movw	r28, r24
    2386:	fb 01       	movw	r30, r22
    2388:	00 84       	ldd	r0, Z+8	; 0x08
    238a:	f1 85       	ldd	r31, Z+9	; 0x09
    238c:	e0 2d       	mov	r30, r0
    238e:	09 95       	icall
    2390:	89 2b       	or	r24, r25
    2392:	e1 f6       	brne	.-72     	; 0x234c <fputc+0x10>
    2394:	d8 01       	movw	r26, r16
    2396:	16 96       	adiw	r26, 0x06	; 6
    2398:	8d 91       	ld	r24, X+
    239a:	9c 91       	ld	r25, X
    239c:	17 97       	sbiw	r26, 0x07	; 7
    239e:	01 96       	adiw	r24, 0x01	; 1
    23a0:	17 96       	adiw	r26, 0x07	; 7
    23a2:	9c 93       	st	X, r25
    23a4:	8e 93       	st	-X, r24
    23a6:	16 97       	sbiw	r26, 0x06	; 6
    23a8:	ce 01       	movw	r24, r28
    23aa:	df 91       	pop	r29
    23ac:	cf 91       	pop	r28
    23ae:	1f 91       	pop	r17
    23b0:	0f 91       	pop	r16
    23b2:	08 95       	ret

000023b4 <__ultoa_invert>:
    23b4:	fa 01       	movw	r30, r20
    23b6:	aa 27       	eor	r26, r26
    23b8:	28 30       	cpi	r18, 0x08	; 8
    23ba:	51 f1       	breq	.+84     	; 0x2410 <__ultoa_invert+0x5c>
    23bc:	20 31       	cpi	r18, 0x10	; 16
    23be:	81 f1       	breq	.+96     	; 0x2420 <__ultoa_invert+0x6c>
    23c0:	e8 94       	clt
    23c2:	6f 93       	push	r22
    23c4:	6e 7f       	andi	r22, 0xFE	; 254
    23c6:	6e 5f       	subi	r22, 0xFE	; 254
    23c8:	7f 4f       	sbci	r23, 0xFF	; 255
    23ca:	8f 4f       	sbci	r24, 0xFF	; 255
    23cc:	9f 4f       	sbci	r25, 0xFF	; 255
    23ce:	af 4f       	sbci	r26, 0xFF	; 255
    23d0:	b1 e0       	ldi	r27, 0x01	; 1
    23d2:	3e d0       	rcall	.+124    	; 0x2450 <__ultoa_invert+0x9c>
    23d4:	b4 e0       	ldi	r27, 0x04	; 4
    23d6:	3c d0       	rcall	.+120    	; 0x2450 <__ultoa_invert+0x9c>
    23d8:	67 0f       	add	r22, r23
    23da:	78 1f       	adc	r23, r24
    23dc:	89 1f       	adc	r24, r25
    23de:	9a 1f       	adc	r25, r26
    23e0:	a1 1d       	adc	r26, r1
    23e2:	68 0f       	add	r22, r24
    23e4:	79 1f       	adc	r23, r25
    23e6:	8a 1f       	adc	r24, r26
    23e8:	91 1d       	adc	r25, r1
    23ea:	a1 1d       	adc	r26, r1
    23ec:	6a 0f       	add	r22, r26
    23ee:	71 1d       	adc	r23, r1
    23f0:	81 1d       	adc	r24, r1
    23f2:	91 1d       	adc	r25, r1
    23f4:	a1 1d       	adc	r26, r1
    23f6:	20 d0       	rcall	.+64     	; 0x2438 <__ultoa_invert+0x84>
    23f8:	09 f4       	brne	.+2      	; 0x23fc <__ultoa_invert+0x48>
    23fa:	68 94       	set
    23fc:	3f 91       	pop	r19
    23fe:	2a e0       	ldi	r18, 0x0A	; 10
    2400:	26 9f       	mul	r18, r22
    2402:	11 24       	eor	r1, r1
    2404:	30 19       	sub	r19, r0
    2406:	30 5d       	subi	r19, 0xD0	; 208
    2408:	31 93       	st	Z+, r19
    240a:	de f6       	brtc	.-74     	; 0x23c2 <__ultoa_invert+0xe>
    240c:	cf 01       	movw	r24, r30
    240e:	08 95       	ret
    2410:	46 2f       	mov	r20, r22
    2412:	47 70       	andi	r20, 0x07	; 7
    2414:	40 5d       	subi	r20, 0xD0	; 208
    2416:	41 93       	st	Z+, r20
    2418:	b3 e0       	ldi	r27, 0x03	; 3
    241a:	0f d0       	rcall	.+30     	; 0x243a <__ultoa_invert+0x86>
    241c:	c9 f7       	brne	.-14     	; 0x2410 <__ultoa_invert+0x5c>
    241e:	f6 cf       	rjmp	.-20     	; 0x240c <__ultoa_invert+0x58>
    2420:	46 2f       	mov	r20, r22
    2422:	4f 70       	andi	r20, 0x0F	; 15
    2424:	40 5d       	subi	r20, 0xD0	; 208
    2426:	4a 33       	cpi	r20, 0x3A	; 58
    2428:	18 f0       	brcs	.+6      	; 0x2430 <__ultoa_invert+0x7c>
    242a:	49 5d       	subi	r20, 0xD9	; 217
    242c:	31 fd       	sbrc	r19, 1
    242e:	40 52       	subi	r20, 0x20	; 32
    2430:	41 93       	st	Z+, r20
    2432:	02 d0       	rcall	.+4      	; 0x2438 <__ultoa_invert+0x84>
    2434:	a9 f7       	brne	.-22     	; 0x2420 <__ultoa_invert+0x6c>
    2436:	ea cf       	rjmp	.-44     	; 0x240c <__ultoa_invert+0x58>
    2438:	b4 e0       	ldi	r27, 0x04	; 4
    243a:	a6 95       	lsr	r26
    243c:	97 95       	ror	r25
    243e:	87 95       	ror	r24
    2440:	77 95       	ror	r23
    2442:	67 95       	ror	r22
    2444:	ba 95       	dec	r27
    2446:	c9 f7       	brne	.-14     	; 0x243a <__ultoa_invert+0x86>
    2448:	00 97       	sbiw	r24, 0x00	; 0
    244a:	61 05       	cpc	r22, r1
    244c:	71 05       	cpc	r23, r1
    244e:	08 95       	ret
    2450:	9b 01       	movw	r18, r22
    2452:	ac 01       	movw	r20, r24
    2454:	0a 2e       	mov	r0, r26
    2456:	06 94       	lsr	r0
    2458:	57 95       	ror	r21
    245a:	47 95       	ror	r20
    245c:	37 95       	ror	r19
    245e:	27 95       	ror	r18
    2460:	ba 95       	dec	r27
    2462:	c9 f7       	brne	.-14     	; 0x2456 <__ultoa_invert+0xa2>
    2464:	62 0f       	add	r22, r18
    2466:	73 1f       	adc	r23, r19
    2468:	84 1f       	adc	r24, r20
    246a:	95 1f       	adc	r25, r21
    246c:	a0 1d       	adc	r26, r0
    246e:	08 95       	ret

00002470 <_exit>:
    2470:	f8 94       	cli

00002472 <__stop_program>:
    2472:	ff cf       	rjmp	.-2      	; 0x2472 <__stop_program>
